(lp1
F0
aF0.9248475211395073
aF1.7276827565540809
aF2.4296371886131647
aF3.0467881604319795
aF3.5920290715084571
aF4.0758936469232792
aF4.5070758609577757
aF4.8928028338505118
aF5.2391171654759496
aF5.5510968080712324
aF5.8330291888128096
aF6.0885506166381402
aF6.3207587564596652
aF6.5323039010526696
aF6.7254633812709645
aF6.9022024669325734
aF7.0642243828573958
aF7.2130115150553484
aF7.3498594597954074
aF7.4759052395223016
aF7.5921507511073276
aF7.6994823071622474
aF7.798686967977809
aF7.8904662309965659
aF7.9754475396960371
aF8.0541939890346779
aF8.1272125360732979
aF8.1949609687954688
aF8.2578538409624578
aF8.31626754402944
aF8.3705446571099174
aF8.4209976914165967
aF8.4679123254963411
aF8.5115502110827279
aF8.5521514158415766
aF8.5899365581400264
aF8.6251086797889069
aF8.6578548951342551
aF8.6883478486168162
aF8.7167470077416827
aF8.7431998141110281
aF8.7678427116136799
aF8.7908020679071033
aF8.8121950028647813
aF8.8321301356083364
aF8.8507082600281297
aF8.8680229572601093
aF8.8841611523823278
aF8.8992036215823322
aF8.9132254551939916
aF8.9262964812824031
aF8.9384816538460541
aF8.9498414091882381
aF8.9604319935694612
aF8.9703057648768691
aF8.979511470724983
aF8.9880945051257228
aF8.996097145627612
aF9.0035587726181827
aF9.0105160723049824
aF9.0170032247351131
aF9.0230520780773205
aF9.0286923102715466
aF9.0339515790460148
aF9.0388556612093023
aF9.0434285820428535
aF9.0476927355463701
aF9.0516689962234924
aF9.0553768230368501
aF9.0588343561093119
aF9.062058506701117
aF9.0650650409500741
aF9.0678686578234604
aF9.070483061695322
aF9.0729210299310683
aF9.075194475832232
aF9.0773145072677863
aF9.0792914812941579
aF9.0811350550437915
aF9.0828542331417594
aF9.0844574118910373
aF9.0859524204498427
aF9.0873465592083917
aF9.0886466355577689
aF9.0898589972299266
aF9.0909895633752917
aF9.092043853532747
aF9.0930270146359966
aF9.0939438461902924
aF9.0947988237442026
aF9.0955961207725142
aF9.0963396290783223
aF9.0970329778149566
aF9.0976795512214519
aF9.0982825051588829
aF9.0988447825288787
aF9.0993691276500943
aF9.0998580996632388
aF9.1003140850304458
aF9.1007393091903044
aF9.1011358474256792
aF9.1015056349975847
aF9.1018504765947466
aF9.1021720551451217
aF9.1024719400325171
aF9.1027515947584927
aF9.1030123840870676
aF9.1032555807071383
aF9.1034823714452067
aF9.103693863058794
aF9.103891087638857
aF9.104075007647598
aF9.1042465206163072
aF9.1044064635261801
aF9.10455561689351
aF9.1046947085792276
aF9.1048244173413657
aF9.1049453761478407
aF9.1050581752656932
aF9.1051633651418893
aF9.1052614590897605
aF9.1053529357941727
aF9.1054382416476844
aF9.1055177929290814
aF9.1055919778349317
aF9.1056611583740796
aF9.1057256721343176
aF9.1057858339298754
aF9.1058419373377593
aF9.1058942561304388
aF9.1059430456118839
aF9.1059885438634609
aF9.1060309729057831
aF9.1060705397821717
aF9.1061074375690332
aF9.1061418463180654
aF9.1061739339349028
aF9.1062038569984907
aF9.1062317615251764
aF9.1062577836812597
aF9.1062820504474722
aF9.106304680238626
aF9.1063257834814699
aF9.1063454631535485
aF9.1063638152857269
aF9.1063809294308022
aF9.1063968891005054
aF9.1064117721730273
aF9.1064256512730495
aF9.1064385941261357
aF9.1064506638892251
aF9.1064619194588179
aF9.1064724157583825
aF9.1064822040063689
aF9.1064913319661436
aF9.1064998441790639
aF9.1065077821818239
aF9.106515184709151
aF9.1065220878828157
aF9.1065285253879011
aF9.1065345286371731
aF9.1065401269243669
aF9.1065453475671365
aF9.1065502160403522
aF9.1065547561004152
aF9.1065589899011741
aF9.1065629381020408
aF9.1065666199687918
aF9.1065700534675855
aF9.1065732553526306
aF9.1065762412479394
aF9.1065790257235708
aF9.1065816223667237
aF9.1065840438480432
aF9.1065863019834445
aF9.1065884077917758
aF9.1065903715485828
aF9.1065922028362483
aF9.1065939105907567
aF9.1065955031452965
aF9.106596988270919
aF9.1065983732144655
aF9.106599664733924
aF9.1066008691314071
aF9.1066019922839043
aF9.1066030396719633
aF9.1066040164064272
aF9.1066049272533771
aF9.1066057766573874
aF9.1066065687632136
aF9.1066073074360201
aF9.1066079962802373
aF9.1066086386571516
aF9.1066092377013046
aF9.1066097963357961
aF9.1066103172865365
aF9.1066108030955579
aF9.106611256133414
aF9.1066116786107472
aF9.1066120725890762
aF9.1066124399908581
aF9.1066127826088632
aF9.1066131021149292
aF9.1066134000681167
aF9.1066136779223168
aF9.1066139370333445
aF9.1066141786655557
aF9.1066144039980177
aF9.1066146141302617
aF9.1066148100876454
aF9.106614992826362
aF9.1066151632381018
aF9.1066153221544042
aF9.1066154703507145
aF9.1066156085501699
aF9.1066157374271288
aF9.1066158576104552
aF9.1066159696865956
aF9.1066160742024351
aF9.1066161716679677
aF9.1066162625587843
aF9.106616347318397
aF9.1066164263603948
aF9.1066165000704711
aF9.1066165688083007
aF9.1066166329092955
aF9.1066166926862415
aF9.1066167484308238
aF9.1066168004150558
aF9.106616848892596
aF9.1066168940999965
aF9.1066169362578506
aF9.1066169755718711
aF9.1066170122338939
aF9.106617046422814
aF9.1066170783054581
aF9.1066171080374012
aF9.106617135763722
aF9.1066171616197149
aF9.1066171857315457
aF9.1066172082168695
aF9.1066172291854048
aF9.1066172487394699
aF9.1066172669744816
aF9.1066172839794177
aF9.1066172998372554
aF9.1066173146253746
aF9.1066173284159344
aF9.1066173412762268
aF9.1066173532690051
aF9.1066173644527897
aF9.1066173748821519
aF9.1066173846079828
aF9.106617393677741
aF9.1066174021356829
aF9.1066174100230786
aF9.1066174173784162
aF9.1066174242375855
aF9.1066174306340582
aF9.1066174365990449
aF9.106617442161653
aF9.1066174473490253
aF9.1066174521864749
aF9.1066174566976059
aF9.1066174609044293
aF9.1066174648274743
aF9.1066174684858847
aF9.1066174718975095
aF9.1066174750789965
aF9.1066174780458713
aF9.106617480812611
aF9.1066174833927143
aF9.1066174857987718
aF9.1066174880425255
aF9.1066174901349228
aF9.1066174920861744
aF9.1066174939057998
aF9.1066174956026789
aF9.1066174971850931
aF9.1066174986607624
aF9.1066175000368883
aF9.1066175013201853
aF9.1066175025169134
aF9.1066175036329149
aF9.1066175046736344
aF9.1066175056441505
aF9.106617506549199
aF9.1066175073931959
aF9.1066175081802587
aF9.1066175089142298
aF9.1066175095986885
aF9.1066175102369762
aF9.1066175108322067
aF9.1066175113872863
aF9.106617511904922
aF9.1066175123876381
aF9.1066175128377935
aF9.1066175132575822
aF9.1066175136490539
aF9.1066175140141166
aF9.1066175143545536
aF9.1066175146720258
aF9.1066175149680824
aF9.1066175152441691
aF9.1066175155016307
aF9.1066175157417248
aF9.106617515965624
aF9.1066175161744187
aF9.1066175163691288
aF9.1066175165507044
aF9.1066175167200321
aF9.1066175168779377
aF9.1066175170251906
aF9.1066175171625101
aF9.1066175172905677
aF9.1066175174099868
aF9.1066175175213502
aF9.1066175176252013
aF9.1066175177220465
aF9.1066175178123583
aF9.1066175178965789
aF9.1066175179751188
aF9.1066175180483597
aF9.1066175181166606
aF9.1066175181803537
aF9.1066175182397497
aF9.1066175182951401
aF9.106617518346793
aF9.1066175183949625
aF9.106617518439883
aF9.106617518481773
aF9.1066175185208369
aF9.1066175185572664
aF9.1066175185912375
aF9.106617518622917
aF9.1066175186524596
aF9.1066175186800091
aF9.1066175187057006
aF9.1066175187296583
aF9.1066175187520013
aF9.1066175187728362
aF9.106617518792266
aF9.1066175188103848
aF9.1066175188272815
aF9.1066175188430378
aF9.1066175188577319
aF9.1066175188714347
aF9.1066175188842138
aF9.1066175188961314
aF9.1066175189072442
aF9.1066175189176075
aF9.1066175189272709
aF9.1066175189362824
aF9.1066175189446863
aF9.1066175189525236
aF9.1066175189598315
aF9.1066175189666474
aF9.1066175189730032
aF9.1066175189789309
aF9.1066175189844589
aF9.1066175189896139
aF9.1066175189944207
aF9.1066175189989025
aF9.1066175190030823
aF9.1066175190069796
aF9.106617519010614
aF9.1066175190140033
aF9.1066175190171652
aF9.106617519020114
aF9.1066175190228638
aF9.106617519025427
aF9.106617519027818
aF9.1066175190300473
aF9.1066175190321257
aF9.1066175190340655
aF9.1066175190358738
aF9.1066175190375596
aF9.1066175190391316
aF9.1066175190405971
aF9.1066175190419649
aF9.1066175190432403
aF9.1066175190444287
aF9.1066175190455372
aF9.106617519046571
aF9.1066175190475356
aF9.1066175190484344
aF9.1066175190492729
aF9.1066175190500545
aF9.1066175190507845
aF9.1066175190514649
aF9.106617519052099
aF9.1066175190526906
aF9.106617519053243
aF9.1066175190537582
aF9.1066175190542378
aF9.1066175190546854
aF9.1066175190551029
aF9.1066175190554919
aF9.1066175190558543
aF9.1066175190561918
aF9.106617519056508
aF9.1066175190568028
aF9.1066175190570764
aF9.1066175190573322
aF9.1066175190575702
aF9.1066175190577923
aF9.1066175190580001
aF9.1066175190581937
aF9.1066175190583749
aF9.1066175190585437
aF9.1066175190587
aF9.1066175190588456
aF9.1066175190589824
aF9.1066175190591103
aF9.1066175190592293
aF9.1066175190593395
aF9.1066175190594425
aF9.1066175190595384
aF9.106617519059629
aF9.1066175190597125
aF9.1066175190597907
aF9.1066175190598635
aF9.106617519059931
aF9.1066175190599949
aF9.1066175190600536
aF9.1066175190601086
aF9.1066175190601601
aF9.1066175190602081
aF9.1066175190602525
aF9.1066175190602934
aF9.1066175190603325
aF9.106617519060368
aF9.1066175190604017
aF9.1066175190604337
aF9.1066175190604639
aF9.1066175190604906
aF9.1066175190605154
aF9.1066175190605385
aF9.1066175190605616
aF9.1066175190605829
aF9.1066175190606025
aF9.1066175190606202
aF9.1066175190606362
aF9.1066175190606522
aF9.1066175190606664
aF9.1066175190606806
aF9.1066175190606931
aF9.1066175190607055
aF9.1066175190607161
aF9.1066175190607268
aF9.1066175190607357
aF9.1066175190607446
aF9.1066175190607535
aF9.1066175190607606
aF9.1066175190607677
aF9.1066175190607748
aF9.1066175190607819
aF9.1066175190607872
aF9.1066175190607925
aF9.1066175190607979
aF9.1066175190608032
aF9.1066175190608067
aF9.1066175190608103
aF9.1066175190608138
aF9.1066175190608174
aF9.106617519060821
aF9.1066175190608245
aF9.1066175190608281
aF9.1066175190608316
aF9.1066175190608334
aF9.1066175190608352
aF9.1066175190608369
aF9.1066175190608387
aF9.1066175190608405
aF9.1066175190608423
aF9.106617519060844
aF9.1066175190608458
aF9.1066175190608476
aF9.1066175190608494
aF9.1066175190608512
aF9.1066175190608529
aF9.1066175190608547
aF9.1066175190608565
aF9.1066175190608565
aF9.1066175190608565
aF9.1066175190608565
aF9.1066175190608565
aF9.1066175190608583
aF9.1066175190608583
aF9.1066175190608583
aF9.1066175190608583
aF9.1066175190608583
aF9.1066175190608583
aF9.1066175190608583
aF9.1066175190608583
aF9.10661751906086
aF9.10661751906086
aF9.10661751906086
aF9.10661751906086
aF9.10661751906086
aF9.10661751906086
aF9.10661751906086
aF9.10661751906086
aF9.10661751906086
aF9.10661751906086
aF9.10661751906086
aF9.10661751906086
aF9.10661751906086
aF9.10661751906086
aF9.10661751906086
aF9.10661751906086
aF9.10661751906086
aF9.10661751906086
aF9.10661751906086
aF9.10661751906086
aF9.10661751906086
aF9.10661751906086
aF9.10661751906086
aF9.10661751906086
aF9.10661751906086
aF9.10661751906086
aF9.10661751906086
aF9.10661751906086
aF9.10661751906086
aF9.10661751906086
aF9.10661751906086
aF9.10661751906086
aF9.10661751906086
aF9.10661751906086
aF9.10661751906086
aF9.10661751906086
aF9.10661751906086
aF9.10661751906086
aF9.10661751906086
aF9.10661751906086
aF9.10661751906086
aF9.10661751906086
aF9.10661751906086
aF9.10661751906086
aF9.10661751906086
aF9.10661751906086
aF9.10661751906086
aF9.10661751906086
aF9.10661751906086
aF9.10661751906086
aF9.10661751906086
aF9.10661751906086
aF9.10661751906086
aF9.10661751906086
aF9.10661751906086
aF9.10661751906086
aF9.10661751906086
aF9.10661751906086
aF9.10661751906086
aF9.10661751906086
aF9.10661751906086
aF9.10661751906086
aF9.10661751906086
aF9.10661751906086
aF9.10661751906086
aF9.10661751906086
aF9.10661751906086
aF9.10661751906086
aF9.10661751906086
aF9.10661751906086
aF9.10661751906086
aF9.10661751906086
aF9.10661751906086
aF9.10661751906086
aF9.10661751906086
aF9.10661751906086
aF9.10661751906086
aF9.10661751906086
aF9.10661751906086
aF9.10661751906086
aF9.10661751906086
aF9.10661751906086
aF9.10661751906086
aF9.10661751906086
aF9.10661751906086
aF9.10661751906086
aF9.10661751906086
aF9.10661751906086
aF9.10661751906086
aF9.10661751906086
aF9.10661751906086
aF9.10661751906086
aF9.10661751906086
aF9.10661751906086
aF9.10661751906086
aF9.10661751906086
aF9.10661751906086
aF9.10661751906086
aF9.10661751906086
aF9.10661751906086
aF9.10661751906086
aF9.10661751906086
aF9.10661751906086
aF9.10661751906086
aF9.10661751906086
aF9.10661751906086
aF9.10661751906086
aF9.10661751906086
aF9.10661751906086
aF9.10661751906086
aF9.10661751906086
aF9.10661751906086
aF9.10661751906086
aF9.10661751906086
aF9.10661751906086
aF9.10661751906086
aF9.10661751906086
aF9.10661751906086
aF9.10661751906086
aF9.10661751906086
aF9.10661751906086
aF9.10661751906086
aF9.10661751906086
aF9.10661751906086
aF9.10661751906086
aF9.10661751906086
aF9.10661751906086
aF9.10661751906086
aF9.10661751906086
aF9.10661751906086
aF9.10661751906086
aF9.10661751906086
aF9.10661751906086
aF9.10661751906086
aF9.10661751906086
aF9.10661751906086
aF9.10661751906086
aF9.10661751906086
aF9.10661751906086
aF9.10661751906086
aF9.10661751906086
aF9.10661751906086
aF9.10661751906086
aF9.10661751906086
aF9.10661751906086
aF9.10661751906086
aF9.10661751906086
aF9.10661751906086
aF9.10661751906086
aF9.10661751906086
aF9.10661751906086
aF9.10661751906086
aF9.10661751906086
aF9.10661751906086
aF9.10661751906086
aF9.10661751906086
aF9.10661751906086
aF9.10661751906086
aF9.10661751906086
aF9.10661751906086
aF9.10661751906086
aF9.10661751906086
aF9.10661751906086
aF9.10661751906086
aF9.10661751906086
aF9.10661751906086
aF9.10661751906086
aF9.10661751906086
aF9.10661751906086
aF9.10661751906086
aF9.10661751906086
aF9.10661751906086
aF9.10661751906086
aF9.10661751906086
aF9.10661751906086
aF9.10661751906086
aF9.10661751906086
aF9.10661751906086
aF9.10661751906086
aF9.10661751906086
aF9.10661751906086
aF9.10661751906086
aF9.10661751906086
aF9.10661751906086
aF9.10661751906086
aF9.10661751906086
aF9.10661751906086
aF9.10661751906086
aF9.10661751906086
aF9.10661751906086
aF9.10661751906086
aF9.10661751906086
aF9.10661751906086
aF9.10661751906086
aF9.10661751906086
aF9.10661751906086
aF9.10661751906086
aF9.10661751906086
aF9.10661751906086
aF9.10661751906086
aF9.10661751906086
aF9.10661751906086
aF9.10661751906086
aF9.10661751906086
aF9.10661751906086
aF9.10661751906086
aF9.10661751906086
aF9.10661751906086
aF9.10661751906086
aF9.10661751906086
aF9.10661751906086
aF9.10661751906086
aF9.10661751906086
aF9.10661751906086
aF9.10661751906086
aF9.10661751906086
aF9.10661751906086
aF9.10661751906086
aF9.10661751906086
aF9.10661751906086
aF9.10661751906086
aF9.10661751906086
aF9.10661751906086
aF9.10661751906086
aF9.10661751906086
aF9.10661751906086
aF9.10661751906086
aF9.10661751906086
aF9.10661751906086
aF9.10661751906086
aF9.10661751906086
aF9.10661751906086
aF9.10661751906086
aF9.10661751906086
aF9.10661751906086
aF9.10661751906086
aF9.10661751906086
aF9.10661751906086
aF9.10661751906086
aF9.10661751906086
aF9.10661751906086
aF9.10661751906086
aF9.10661751906086
aF9.10661751906086
aF9.10661751906086
aF9.10661751906086
aF9.10661751906086
aF9.10661751906086
aF9.10661751906086
aF9.10661751906086
aF9.10661751906086
aF9.10661751906086
aF9.10661751906086
aF9.10661751906086
aF9.10661751906086
aF9.10661751906086
aF9.10661751906086
aF9.10661751906086
aF9.10661751906086
aF9.10661751906086
aF9.10661751906086
aF9.10661751906086
aF9.10661751906086
aF9.10661751906086
aF9.10661751906086
aF9.10661751906086
aF9.10661751906086
aF9.10661751906086
aF9.10661751906086
aF9.10661751906086
aF9.10661751906086
aF9.10661751906086
aF9.10661751906086
aF9.10661751906086
aF9.10661751906086
aF9.10661751906086
aF9.10661751906086
aF9.10661751906086
aF9.10661751906086
aF9.10661751906086
aF9.10661751906086
aF9.10661751906086
aF9.10661751906086
aF9.10661751906086
aF9.10661751906086
aF9.10661751906086
aF9.10661751906086
aF9.10661751906086
aF9.10661751906086
aF9.10661751906086
aF9.10661751906086
aF9.10661751906086
aF9.10661751906086
aF9.10661751906086
aF9.10661751906086
aF9.10661751906086
aF9.10661751906086
aF9.10661751906086
aF9.10661751906086
aF9.10661751906086
aF9.10661751906086
aF9.10661751906086
aF9.10661751906086
aF9.10661751906086
aF9.10661751906086
aF9.10661751906086
aF9.10661751906086
aF9.10661751906086
aF9.10661751906086
aF9.10661751906086
aF9.10661751906086
aF9.10661751906086
aF9.10661751906086
aF9.10661751906086
aF9.10661751906086
aF9.10661751906086
aF9.10661751906086
aF9.10661751906086
aF9.10661751906086
aF9.10661751906086
aF9.10661751906086
aF9.10661751906086
aF9.10661751906086
aF9.10661751906086
aF9.10661751906086
aF9.10661751906086
aF9.10661751906086
aF9.10661751906086
aF9.10661751906086
aF9.10661751906086
aF9.10661751906086
aF9.10661751906086
aF9.10661751906086
aF9.10661751906086
aF9.10661751906086
aF9.10661751906086
aF9.10661751906086
aF9.10661751906086
aF9.10661751906086
aF9.10661751906086
aF9.10661751906086
aF9.10661751906086
aF9.10661751906086
aF9.10661751906086
aF9.10661751906086
aF9.10661751906086
aF9.10661751906086
aF9.10661751906086
aF9.10661751906086
aF9.10661751906086
aF9.10661751906086
aF9.10661751906086
aF9.10661751906086
aF9.10661751906086
aF9.10661751906086
aF9.10661751906086
aF9.10661751906086
aF9.10661751906086
aF9.10661751906086
aF9.10661751906086
aF9.10661751906086
aF9.10661751906086
aF9.10661751906086
aF9.10661751906086
aF9.10661751906086
aF9.10661751906086
aF9.10661751906086
aF9.10661751906086
aF9.10661751906086
aF9.10661751906086
aF9.10661751906086
aF9.10661751906086
aF9.10661751906086
aF9.10661751906086
aF9.10661751906086
aF9.10661751906086
aF9.10661751906086
aF9.10661751906086
aF9.10661751906086
aF9.10661751906086
aF9.10661751906086
aF9.10661751906086
aF9.10661751906086
aF9.10661751906086
aF9.10661751906086
aF9.10661751906086
aF9.10661751906086
aF9.10661751906086
aF9.10661751906086
aF9.10661751906086
aF9.10661751906086
aF9.10661751906086
aF9.10661751906086
aF9.10661751906086
aF9.10661751906086
aF9.10661751906086
aF9.10661751906086
aF9.10661751906086
aF9.10661751906086
aF9.10661751906086
aF9.10661751906086
aF9.10661751906086
aF9.10661751906086
aF9.10661751906086
aF9.10661751906086
aF9.10661751906086
aF9.10661751906086
aF9.10661751906086
aF9.10661751906086
aF9.10661751906086
aF9.10661751906086
aF9.10661751906086
aF9.10661751906086
aF9.10661751906086
aF9.10661751906086
aF9.10661751906086
aF9.10661751906086
aF9.10661751906086
aF9.10661751906086
aF9.10661751906086
aF9.10661751906086
aF9.10661751906086
aF9.10661751906086
aF9.10661751906086
aF9.10661751906086
aF9.10661751906086
aF9.10661751906086
aF9.10661751906086
aF9.10661751906086
aF9.10661751906086
aF9.10661751906086
aF9.10661751906086
aF9.10661751906086
aF9.10661751906086
aF9.10661751906086
aF9.10661751906086
aF9.10661751906086
aF9.10661751906086
aF9.10661751906086
aF9.10661751906086
aF9.10661751906086
aF9.10661751906086
aF9.10661751906086
aF9.10661751906086
aF9.10661751906086
aF9.10661751906086
aF9.10661751906086
aF9.10661751906086
aF9.10661751906086
aF9.10661751906086
aF9.10661751906086
aF9.10661751906086
aF9.10661751906086
aF9.10661751906086
aF9.10661751906086
aF9.10661751906086
aF9.10661751906086
aF9.10661751906086
aF9.10661751906086
aF9.10661751906086
aF9.10661751906086
aF9.10661751906086
aF9.10661751906086
aF9.10661751906086
aF9.10661751906086
aF9.10661751906086
aF9.10661751906086
aF9.10661751906086
aF9.10661751906086
aF9.10661751906086
aF9.10661751906086
aF9.10661751906086
aF9.10661751906086
aF9.10661751906086
aF9.10661751906086
aF9.10661751906086
aF9.10661751906086
aF9.10661751906086
aF9.10661751906086
aF9.10661751906086
aF9.10661751906086
aF9.10661751906086
aF9.10661751906086
aF9.10661751906086
aF9.10661751906086
aF9.10661751906086
aF9.10661751906086
aF9.10661751906086
aF9.10661751906086
aF9.10661751906086
aF9.10661751906086
aF9.10661751906086
aF9.10661751906086
aF9.10661751906086
aF9.10661751906086
aF9.10661751906086
aF9.10661751906086
aF9.10661751906086
aF9.10661751906086
aF9.10661751906086
aF9.10661751906086
aF9.10661751906086
aF9.10661751906086
aF9.10661751906086
aF9.10661751906086
aF9.10661751906086
aF9.10661751906086
aF9.10661751906086
aF9.10661751906086
aF9.10661751906086
aF9.10661751906086
aF9.10661751906086
aF9.10661751906086
aF9.10661751906086
aF9.10661751906086
aF9.10661751906086
aF9.10661751906086
aF9.10661751906086
aF9.10661751906086
aF9.10661751906086
aF9.10661751906086
aF9.10661751906086
aF9.10661751906086
aF9.10661751906086
aF9.10661751906086
aF9.10661751906086
aF9.10661751906086
aF9.10661751906086
aF9.10661751906086
aF9.10661751906086
aF9.10661751906086
aF9.10661751906086
aF9.10661751906086
aF9.10661751906086
aF9.10661751906086
aF9.10661751906086
aF9.10661751906086
aF9.10661751906086
aF9.10661751906086
aF9.10661751906086
aF9.10661751906086
aF9.10661751906086
aF9.10661751906086
aF9.10661751906086
aF9.10661751906086
aF9.10661751906086
aF9.10661751906086
aF9.10661751906086
aF9.10661751906086
aF9.10661751906086
aF9.10661751906086
aF9.10661751906086
aF9.10661751906086
aF9.10661751906086
aF9.10661751906086
aF9.10661751906086
aF9.10661751906086
aF9.10661751906086
aF9.10661751906086
aF9.10661751906086
aF9.10661751906086
aF9.10661751906086
aF9.10661751906086
aF9.10661751906086
aF9.10661751906086
aF9.10661751906086
aF9.10661751906086
aF9.10661751906086
aF9.10661751906086
aF9.10661751906086
aF9.10661751906086
aF9.10661751906086
aF9.10661751906086
aF9.10661751906086
aF9.10661751906086
aF9.10661751906086
aF9.10661751906086
aF9.10661751906086
aF9.10661751906086
aF9.10661751906086
aF9.10661751906086
aF9.10661751906086
aF9.10661751906086
aF9.10661751906086
aF9.10661751906086
aF9.10661751906086
aF9.10661751906086
aF9.10661751906086
aF9.10661751906086
aF9.10661751906086
aF9.10661751906086
aF9.10661751906086
aF9.10661751906086
aF9.10661751906086
aF9.10661751906086
aF9.10661751906086
aF9.10661751906086
aF9.10661751906086
aF9.10661751906086
aF9.10661751906086
aF9.10661751906086
aF9.10661751906086
aF9.10661751906086
aF9.10661751906086
aF9.10661751906086
aF9.10661751906086
aF9.10661751906086
aF9.10661751906086
aF9.10661751906086
aF9.10661751906086
aF9.10661751906086
aF9.10661751906086
aF9.10661751906086
aF9.10661751906086
aF9.10661751906086
aF9.10661751906086
aF9.10661751906086
aF9.10661751906086
aF9.10661751906086
aF9.10661751906086
aF9.10661751906086
aF9.10661751906086
aF9.10661751906086
aF9.10661751906086
aF9.10661751906086
aF9.10661751906086
aF9.10661751906086
aF9.10661751906086
aF9.10661751906086
aF9.10661751906086
aF9.10661751906086
aF9.10661751906086
aF9.10661751906086
aF9.10661751906086
aF9.10661751906086
aF9.10661751906086
aF9.10661751906086
aF9.10661751906086
aF9.10661751906086
aF9.10661751906086
aF9.10661751906086
aF9.10661751906086
aF9.10661751906086
aF9.10661751906086
aF9.10661751906086
aF9.10661751906086
aF9.10661751906086
aF9.10661751906086
aF9.10661751906086
aF9.10661751906086
aF9.10661751906086
aF9.10661751906086
aF9.10661751906086
aF9.10661751906086
aF9.10661751906086
aF9.10661751906086
aF9.10661751906086
aF9.10661751906086
aF9.10661751906086
aF9.10661751906086
aF9.10661751906086
aF9.10661751906086
aF9.10661751906086
aF9.10661751906086
aF9.10661751906086
aF9.10661751906086
aF9.10661751906086
aF9.10661751906086
aF9.10661751906086
aF9.10661751906086
aF9.10661751906086
aF9.10661751906086
aF9.10661751906086
aF9.10661751906086
aF9.10661751906086
aF9.10661751906086
aF9.10661751906086
aF9.10661751906086
aF9.10661751906086
aF9.10661751906086
aF9.10661751906086
aF9.10661751906086
aF9.10661751906086
aF9.10661751906086
aF9.10661751906086
aF9.10661751906086
aF9.10661751906086
aF9.10661751906086
aF9.10661751906086
aF9.10661751906086
aF9.10661751906086
aF9.10661751906086
aF9.10661751906086
aF9.10661751906086
aF9.10661751906086
aF9.10661751906086
aF9.10661751906086
aF9.10661751906086
aF9.10661751906086
aF9.10661751906086
aF9.10661751906086
aF9.10661751906086
aF9.10661751906086
aF9.10661751906086
aF9.10661751906086
aF9.10661751906086
aF9.10661751906086
aF9.10661751906086
aF9.10661751906086
aF9.10661751906086
aF9.10661751906086
aF9.10661751906086
aF9.10661751906086
aF9.10661751906086
aF9.10661751906086
aF9.10661751906086
aF9.10661751906086
aF9.10661751906086
aF9.10661751906086
aF9.10661751906086
aF9.10661751906086
aF9.10661751906086
aF9.10661751906086
aF9.10661751906086
aF9.10661751906086
aF9.10661751906086
aF9.10661751906086
aF9.10661751906086
aF9.10661751906086
aF9.10661751906086
aF9.10661751906086
aF9.10661751906086
aF9.10661751906086
aF9.10661751906086
aF9.10661751906086
aF9.10661751906086
aF9.10661751906086
aF9.10661751906086
aF9.10661751906086
aF9.10661751906086
aF9.10661751906086
aF9.10661751906086
aF9.10661751906086
aF9.10661751906086
aF9.10661751906086
aF9.10661751906086
aF9.10661751906086
aF9.10661751906086
aF9.10661751906086
aF9.10661751906086
aF9.10661751906086
aF9.10661751906086
aF9.10661751906086
aF9.10661751906086
aF9.10661751906086
aF9.10661751906086
aF9.10661751906086
aF9.10661751906086
aF9.10661751906086
aF9.10661751906086
aF9.10661751906086
aF9.10661751906086
aF9.10661751906086
aF9.10661751906086
aF9.10661751906086
aF9.10661751906086
aF9.10661751906086
aF9.10661751906086
aF9.10661751906086
aF9.10661751906086
aF9.10661751906086
aF9.10661751906086
aF9.10661751906086
aF9.10661751906086
aF9.10661751906086
aF9.10661751906086
aF9.10661751906086
aF9.10661751906086
aF9.10661751906086
aF9.10661751906086
aF9.10661751906086
aF9.10661751906086
aF9.10661751906086
aF9.10661751906086
aF9.10661751906086
aF9.10661751906086
aF9.10661751906086
aF9.10661751906086
aF9.10661751906086
aF9.10661751906086
aF9.10661751906086
aF9.10661751906086
aF9.10661751906086
aF9.10661751906086
aF9.10661751906086
aF9.10661751906086
aF9.10661751906086
aF9.10661751906086
aF9.10661751906086
aF9.10661751906086
aF9.10661751906086
aF9.10661751906086
aF9.10661751906086
aF9.10661751906086
aF9.10661751906086
aF9.10661751906086
aF9.10661751906086
aF9.10661751906086
aF9.10661751906086
aF9.10661751906086
aF9.10661751906086
aF9.10661751906086
aF9.10661751906086
aF9.10661751906086
aF9.10661751906086
aF9.10661751906086
aF9.10661751906086
aF9.10661751906086
aF9.10661751906086
aF9.10661751906086
aF9.10661751906086
aF9.10661751906086
aF9.10661751906086
aF9.10661751906086
aF9.10661751906086
aF9.10661751906086
aF9.10661751906086
aF9.10661751906086
aF9.10661751906086
aF9.10661751906086
aF9.10661751906086
aF9.10661751906086
aF9.10661751906086
aF9.10661751906086
aF9.10661751906086
aF9.10661751906086
aF9.10661751906086
aF9.10661751906086
aF9.10661751906086
aF9.10661751906086
aF9.10661751906086
aF9.10661751906086
aF9.10661751906086
aF9.10661751906086
aF9.10661751906086
aF9.10661751906086
aF9.10661751906086
aF9.10661751906086
aF9.10661751906086
aF9.10661751906086
aF9.10661751906086
aF9.10661751906086
aF9.10661751906086
aF9.10661751906086
aF9.10661751906086
aF9.10661751906086
aF9.10661751906086
aF9.10661751906086
aF9.10661751906086
aF9.10661751906086
aF9.10661751906086
aF9.10661751906086
aF9.10661751906086
aF9.10661751906086
aF9.10661751906086
aF9.10661751906086
aF9.10661751906086
aF9.10661751906086
aF9.10661751906086
aF9.10661751906086
aF9.10661751906086
aF9.10661751906086
aF9.10661751906086
aF9.10661751906086
aF9.10661751906086
aF9.10661751906086
aF9.10661751906086
aF9.10661751906086
aF9.10661751906086
aF9.10661751906086
aF9.10661751906086
aF9.10661751906086
aF9.10661751906086
aF9.10661751906086
aF9.10661751906086
aF9.10661751906086
aF9.10661751906086
aF9.10661751906086
aF9.10661751906086
aF9.10661751906086
aF9.10661751906086
aF9.10661751906086
aF9.10661751906086
aF9.10661751906086
aF9.10661751906086
aF9.10661751906086
aF9.10661751906086
aF9.10661751906086
aF9.10661751906086
aF9.10661751906086
aF9.10661751906086
aF9.10661751906086
aF9.10661751906086
aF9.10661751906086
aF9.10661751906086
aF9.10661751906086
aF9.10661751906086
aF9.10661751906086
aF9.10661751906086
aF9.10661751906086
aF9.10661751906086
aF9.10661751906086
aF9.10661751906086
aF9.10661751906086
aF9.10661751906086
aF9.10661751906086
aF9.10661751906086
aF9.10661751906086
aF9.10661751906086
aF9.10661751906086
aF9.10661751906086
aF9.10661751906086
aF9.10661751906086
aF9.10661751906086
aF9.10661751906086
aF9.10661751906086
aF9.10661751906086
aF9.10661751906086
aF9.10661751906086
aF9.10661751906086
aF9.10661751906086
aF9.10661751906086
aF9.10661751906086
aF9.10661751906086
aF9.10661751906086
aF9.10661751906086
aF9.10661751906086
aF9.10661751906086
aF9.10661751906086
aF9.10661751906086
aF9.10661751906086
aF9.10661751906086
aF9.10661751906086
aF9.10661751906086
aF9.10661751906086
aF9.10661751906086
aF9.10661751906086
aF9.10661751906086
aF9.10661751906086
aF9.10661751906086
aF9.10661751906086
aF9.10661751906086
aF9.10661751906086
aF9.10661751906086
aF9.10661751906086
aF9.10661751906086
aF9.10661751906086
aF9.10661751906086
aF9.10661751906086
aF9.10661751906086
aF9.10661751906086
aF9.10661751906086
aF9.10661751906086
aF9.10661751906086
aF9.10661751906086
aF9.10661751906086
aF9.10661751906086
aF9.10661751906086
aF9.10661751906086
aF9.10661751906086
aF9.10661751906086
aF9.10661751906086
aF9.10661751906086
aF9.10661751906086
aF9.10661751906086
aF9.10661751906086
aF9.10661751906086
aF9.10661751906086
aF9.10661751906086
aF9.10661751906086
aF9.10661751906086
aF9.10661751906086
aF9.10661751906086
aF9.10661751906086
aF9.10661751906086
aF9.10661751906086
aF9.10661751906086
aF9.10661751906086
aF9.10661751906086
aF9.10661751906086
aF9.10661751906086
aF9.10661751906086
aF9.10661751906086
aF9.10661751906086
aF9.10661751906086
aF9.10661751906086
aF9.10661751906086
aF9.10661751906086
aF9.10661751906086
aF9.10661751906086
aF9.10661751906086
aF9.10661751906086
aF9.10661751906086
aF9.10661751906086
aF9.10661751906086
aF9.10661751906086
aF9.10661751906086
aF9.10661751906086
aF9.10661751906086
aF9.10661751906086
aF9.10661751906086
aF9.10661751906086
aF9.10661751906086
aF9.10661751906086
aF9.10661751906086
aF9.10661751906086
aF9.10661751906086
aF9.10661751906086
aF9.10661751906086
aF9.10661751906086
aF9.10661751906086
aF9.10661751906086
aF9.10661751906086
aF9.10661751906086
aF9.10661751906086
aF9.10661751906086
aF9.10661751906086
aF9.10661751906086
aF9.10661751906086
aF9.10661751906086
aF9.10661751906086
aF9.10661751906086
aF9.10661751906086
aF9.10661751906086
aF9.10661751906086
aF9.10661751906086
aF9.10661751906086
aF9.10661751906086
aF9.10661751906086
aF9.10661751906086
aF9.10661751906086
aF9.10661751906086
aF9.10661751906086
aF9.10661751906086
aF9.10661751906086
aF9.10661751906086
aF9.10661751906086
aF9.10661751906086
aF9.10661751906086
aF9.10661751906086
aF9.10661751906086
aF9.10661751906086
aF9.10661751906086
aF9.10661751906086
aF9.10661751906086
aF9.10661751906086
aF9.10661751906086
aF9.10661751906086
aF9.10661751906086
aF9.10661751906086
aF9.10661751906086
aF9.10661751906086
aF9.10661751906086
aF9.10661751906086
aF9.10661751906086
aF9.10661751906086
aF9.10661751906086
aF9.10661751906086
aF9.10661751906086
aF9.10661751906086
aF9.10661751906086
aF9.10661751906086
aF9.10661751906086
aF9.10661751906086
aF9.10661751906086
aF9.10661751906086
aF9.10661751906086
aF9.10661751906086
aF9.10661751906086
aF9.10661751906086
aF9.10661751906086
aF9.10661751906086
aF9.10661751906086
aF9.10661751906086
aF9.10661751906086
aF9.10661751906086
aF9.10661751906086
aF9.10661751906086
aF9.10661751906086
aF9.10661751906086
aF9.10661751906086
aF9.10661751906086
aF9.10661751906086
aF9.10661751906086
aF9.10661751906086
aF9.10661751906086
aF9.10661751906086
aF9.10661751906086
aF9.10661751906086
aF9.10661751906086
aF9.10661751906086
aF9.10661751906086
aF9.10661751906086
aF9.10661751906086
aF9.10661751906086
aF9.10661751906086
aF9.10661751906086
aF9.10661751906086
aF9.10661751906086
aF9.10661751906086
aF9.10661751906086
aF9.10661751906086
aF9.10661751906086
aF9.10661751906086
aF9.10661751906086
aF9.10661751906086
aF9.10661751906086
aF9.10661751906086
aF9.10661751906086
aF9.10661751906086
aF9.10661751906086
aF9.10661751906086
aF9.10661751906086
aF9.10661751906086
aF9.10661751906086
aF9.10661751906086
aF9.10661751906086
aF9.10661751906086
aF9.10661751906086
aF9.10661751906086
aF9.10661751906086
aF9.10661751906086
aF9.10661751906086
aF9.10661751906086
aF9.10661751906086
aF9.10661751906086
aF9.10661751906086
aF9.10661751906086
aF9.10661751906086
aF9.10661751906086
aF9.10661751906086
aF9.10661751906086
aF9.10661751906086
aF9.10661751906086
aF9.10661751906086
aF9.10661751906086
aF9.10661751906086
aF9.10661751906086
aF9.10661751906086
aF9.10661751906086
aF9.10661751906086
aF9.10661751906086
aF9.10661751906086
aF9.10661751906086
aF9.10661751906086
aF9.10661751906086
aF9.10661751906086
aF9.10661751906086
aF9.10661751906086
aF9.10661751906086
aF9.10661751906086
aF9.10661751906086
aF9.10661751906086
aF9.10661751906086
aF9.10661751906086
aF9.10661751906086
aF9.10661751906086
aF9.10661751906086
aF9.10661751906086
aF9.10661751906086
aF9.10661751906086
aF9.10661751906086
aF9.10661751906086
aF9.10661751906086
aF9.10661751906086
aF9.10661751906086
aF9.10661751906086
aF9.10661751906086
aF9.10661751906086
aF9.10661751906086
aF9.10661751906086
aF9.10661751906086
aF9.10661751906086
aF9.10661751906086
aF9.10661751906086
aF9.10661751906086
aF9.10661751906086
aF9.10661751906086
aF9.10661751906086
aF9.10661751906086
aF9.10661751906086
aF9.10661751906086
aF9.10661751906086
aF9.10661751906086
aF9.10661751906086
aF9.10661751906086
aF9.10661751906086
aF9.10661751906086
aF9.10661751906086
aF9.10661751906086
aF9.10661751906086
aF9.10661751906086
aF9.10661751906086
aF9.10661751906086
aF9.10661751906086
aF9.10661751906086
aF9.10661751906086
aF9.10661751906086
aF9.10661751906086
aF9.10661751906086
aF9.10661751906086
aF9.10661751906086
aF9.10661751906086
aF9.10661751906086
aF9.10661751906086
aF9.10661751906086
aF9.10661751906086
aF9.10661751906086
aF9.10661751906086
aF9.10661751906086
aF9.10661751906086
aF9.10661751906086
aF9.10661751906086
aF9.10661751906086
aF9.10661751906086
aF9.10661751906086
aF9.10661751906086
aF9.10661751906086
aF9.10661751906086
aF9.10661751906086
aF9.10661751906086
aF9.10661751906086
aF9.10661751906086
aF9.10661751906086
aF9.10661751906086
aF9.10661751906086
aF9.10661751906086
aF9.10661751906086
aF9.10661751906086
aF9.10661751906086
aF9.10661751906086
aF9.10661751906086
aF9.10661751906086
aF9.10661751906086
aF9.10661751906086
aF9.10661751906086
aF9.10661751906086
aF9.10661751906086
aF9.10661751906086
aF9.10661751906086
aF9.10661751906086
aF9.10661751906086
aF9.10661751906086
aF9.10661751906086
aF9.10661751906086
aF9.10661751906086
aF9.10661751906086
aF9.10661751906086
aF9.10661751906086
aF9.10661751906086
aF9.10661751906086
aF9.10661751906086
aF9.10661751906086
aF9.10661751906086
aF9.10661751906086
aF9.10661751906086
aF9.10661751906086
aF9.10661751906086
aF9.10661751906086
aF9.10661751906086
aF9.10661751906086
aF9.10661751906086
aF9.10661751906086
aF9.10661751906086
aF9.10661751906086
aF9.10661751906086
aF9.10661751906086
aF9.10661751906086
aF9.10661751906086
aF9.10661751906086
aF9.10661751906086
aF9.10661751906086
aF9.10661751906086
aF9.10661751906086
aF9.10661751906086
aF9.10661751906086
aF9.10661751906086
aF9.10661751906086
aF9.10661751906086
aF9.10661751906086
aF9.10661751906086
aF9.10661751906086
aF9.10661751906086
aF9.10661751906086
aF9.10661751906086
aF9.10661751906086
aF9.10661751906086
aF9.10661751906086
aF9.10661751906086
aF9.10661751906086
aF9.10661751906086
aF9.10661751906086
aF9.10661751906086
aF9.10661751906086
aF9.10661751906086
aF9.10661751906086
aF9.10661751906086
aF9.10661751906086
aF9.10661751906086
aF9.10661751906086
aF9.10661751906086
aF9.10661751906086
aF9.10661751906086
aF9.10661751906086
aF9.10661751906086
aF9.10661751906086
aF9.10661751906086
aF9.10661751906086
aF9.10661751906086
aF9.10661751906086
aF9.10661751906086
aF9.10661751906086
aF9.10661751906086
aF9.10661751906086
aF9.10661751906086
aF9.10661751906086
aF9.10661751906086
aF9.10661751906086
aF9.10661751906086
aF9.10661751906086
aF9.10661751906086
aF9.10661751906086
aF9.10661751906086
aF9.10661751906086
aF9.10661751906086
aF9.10661751906086
aF9.10661751906086
aF9.10661751906086
aF9.10661751906086
aF9.10661751906086
aF9.10661751906086
aF9.10661751906086
aF9.10661751906086
aF9.10661751906086
aF9.10661751906086
aF9.10661751906086
aF9.10661751906086
aF9.10661751906086
aF9.10661751906086
aF9.10661751906086
aF9.10661751906086
aF9.10661751906086
aF9.10661751906086
aF9.10661751906086
aF9.10661751906086
aF9.10661751906086
aF9.10661751906086
aF9.10661751906086
aF9.10661751906086
aF9.10661751906086
aF9.10661751906086
aF9.10661751906086
aF9.10661751906086
aF9.10661751906086
aF9.10661751906086
aF9.10661751906086
aF9.10661751906086
aF9.10661751906086
aF9.10661751906086
aF9.10661751906086
aF9.10661751906086
aF9.10661751906086
aF9.10661751906086
aF9.10661751906086
aF9.10661751906086
aF9.10661751906086
aF9.10661751906086
aF9.10661751906086
aF9.10661751906086
aF9.10661751906086
aF9.10661751906086
aF9.10661751906086
aF9.10661751906086
aF9.10661751906086
aF9.10661751906086
aF9.10661751906086
aF9.10661751906086
aF9.10661751906086
aF9.10661751906086
aF9.10661751906086
aF9.10661751906086
aF9.10661751906086
aF9.10661751906086
aF9.10661751906086
aF9.10661751906086
aF9.10661751906086
aF9.10661751906086
aF9.10661751906086
aF9.10661751906086
aF9.10661751906086
aF9.10661751906086
aF9.10661751906086
aF9.10661751906086
aF9.10661751906086
aF9.10661751906086
aF9.10661751906086
aF9.10661751906086
aF9.10661751906086
aF9.10661751906086
aF9.10661751906086
aF9.10661751906086
aF9.10661751906086
aF9.10661751906086
aF9.10661751906086
aF9.10661751906086
aF9.10661751906086
aF9.10661751906086
aF9.10661751906086
aF9.10661751906086
aF9.10661751906086
aF9.10661751906086
aF9.10661751906086
aF9.10661751906086
aF9.10661751906086
aF9.10661751906086
aF9.10661751906086
aF9.10661751906086
aF9.10661751906086
aF9.10661751906086
aF9.10661751906086
aF9.10661751906086
aF9.10661751906086
aF9.10661751906086
aF9.10661751906086
aF9.10661751906086
aF9.10661751906086
aF9.10661751906086
aF9.10661751906086
aF9.10661751906086
aF9.10661751906086
aF9.10661751906086
aF9.10661751906086
aF9.10661751906086
aF9.10661751906086
aF9.10661751906086
aF9.10661751906086
aF9.10661751906086
aF9.10661751906086
aF9.10661751906086
aF9.10661751906086
aF9.10661751906086
aF9.10661751906086
aF9.10661751906086
aF9.10661751906086
aF9.10661751906086
aF9.10661751906086
aF9.10661751906086
aF9.10661751906086
aF9.10661751906086
aF9.10661751906086
aF9.10661751906086
aF9.10661751906086
aF9.10661751906086
aF9.10661751906086
aF9.10661751906086
aF9.10661751906086
aF9.10661751906086
aF9.10661751906086
aF9.10661751906086
aF9.10661751906086
aF9.10661751906086
aF9.10661751906086
aF9.10661751906086
aF9.10661751906086
aF9.10661751906086
aF9.10661751906086
aF9.10661751906086
aF9.10661751906086
aF9.10661751906086
aF9.10661751906086
aF9.10661751906086
aF9.10661751906086
aF9.10661751906086
aF9.10661751906086
aF9.10661751906086
aF9.10661751906086
aF9.10661751906086
aF9.10661751906086
aF9.10661751906086
aF9.10661751906086
aF9.10661751906086
aF9.10661751906086
aF9.10661751906086
aF9.10661751906086
aF9.10661751906086
aF9.10661751906086
aF9.10661751906086
aF9.10661751906086
aF9.10661751906086
aF9.10661751906086
aF9.10661751906086
aF9.10661751906086
aF9.10661751906086
aF9.10661751906086
aF9.10661751906086
aF9.10661751906086
aF9.10661751906086
aF9.10661751906086
aF9.10661751906086
aF9.10661751906086
aF9.10661751906086
aF9.10661751906086
aF9.10661751906086
aF9.10661751906086
aF9.10661751906086
aF9.10661751906086
aF9.10661751906086
aF9.10661751906086
aF9.10661751906086
aF9.10661751906086
aF9.10661751906086
aF9.10661751906086
aF9.10661751906086
aF9.10661751906086
aF9.10661751906086
aF9.10661751906086
aF9.10661751906086
aF9.10661751906086
aF9.10661751906086
aF9.10661751906086
aF9.10661751906086
aF9.10661751906086
aF9.10661751906086
aF9.10661751906086
aF9.10661751906086
aF9.10661751906086
aF9.10661751906086
aF9.10661751906086
aF9.10661751906086
aF9.10661751906086
aF9.10661751906086
aF9.10661751906086
aF9.10661751906086
aF9.10661751906086
aF9.10661751906086
aF9.10661751906086
aF9.10661751906086
aF9.10661751906086
aF9.10661751906086
aF9.10661751906086
aF9.10661751906086
aF9.10661751906086
aF9.10661751906086
aF9.10661751906086
aF9.10661751906086
aF9.10661751906086
aF9.10661751906086
aF9.10661751906086
aF9.10661751906086
aF9.10661751906086
aF9.10661751906086
aF9.10661751906086
aF9.10661751906086
aF9.10661751906086
aF9.10661751906086
aF9.10661751906086
aF9.10661751906086
aF9.10661751906086
aF9.10661751906086
aF9.10661751906086
aF9.10661751906086
aF9.10661751906086
aF9.10661751906086
aF9.10661751906086
aF9.10661751906086
aF9.10661751906086
aF9.10661751906086
aF9.10661751906086
aF9.10661751906086
aF9.10661751906086
aF9.10661751906086
aF9.10661751906086
aF9.10661751906086
aF9.10661751906086
aF9.10661751906086
aF9.10661751906086
aF9.10661751906086
aF9.10661751906086
aF9.10661751906086
aF9.10661751906086
aF9.10661751906086
aF9.10661751906086
aF9.10661751906086
aF9.10661751906086
aF9.10661751906086
aF9.10661751906086
aF9.10661751906086
aF9.10661751906086
aF9.10661751906086
aF9.10661751906086
aF9.10661751906086
aF9.10661751906086
aF9.10661751906086
aF9.10661751906086
aF9.10661751906086
aF9.10661751906086
aF9.10661751906086
aF9.10661751906086
aF9.10661751906086
aF9.10661751906086
aF9.10661751906086
aF9.10661751906086
aF9.10661751906086
aF9.10661751906086
aF9.10661751906086
aF9.10661751906086
aF9.10661751906086
aF9.10661751906086
aF9.10661751906086
aF9.10661751906086
aF9.10661751906086
aF9.10661751906086
aF9.10661751906086
aF9.10661751906086
aF9.10661751906086
aF9.10661751906086
aF9.10661751906086
aF9.10661751906086
aF9.10661751906086
aF9.10661751906086
aF9.10661751906086
aF9.10661751906086
aF9.10661751906086
aF9.10661751906086
aF9.10661751906086
aF9.10661751906086
aF9.10661751906086
aF9.10661751906086
aF9.10661751906086
aF9.10661751906086
aF9.10661751906086
aF9.10661751906086
aF9.10661751906086
aF9.10661751906086
aF9.10661751906086
aF9.10661751906086
aF9.10661751906086
aF9.10661751906086
aF9.10661751906086
aF9.10661751906086
aF9.10661751906086
aF9.10661751906086
aF9.10661751906086
aF9.10661751906086
aF9.10661751906086
aF9.10661751906086
aF9.10661751906086
aF9.10661751906086
aF9.10661751906086
aF9.10661751906086
aF9.10661751906086
aF9.10661751906086
aF9.10661751906086
aF9.10661751906086
aF9.10661751906086
aF9.10661751906086
aF9.10661751906086
aF9.10661751906086
aF9.10661751906086
aF9.10661751906086
aF9.10661751906086
aF9.10661751906086
aF9.10661751906086
aF9.10661751906086
aF9.10661751906086
aF9.10661751906086
aF9.10661751906086
aF9.10661751906086
aF9.10661751906086
aF9.10661751906086
aF9.10661751906086
aF9.10661751906086
aF9.10661751906086
aF9.10661751906086
aF9.10661751906086
aF9.10661751906086
aF9.10661751906086
aF9.10661751906086
aF9.10661751906086
aF9.10661751906086
aF9.10661751906086
aF9.10661751906086
aF9.10661751906086
aF9.10661751906086
aF9.10661751906086
aF9.10661751906086
aF9.10661751906086
aF9.10661751906086
aF9.10661751906086
aF9.10661751906086
aF9.10661751906086
aF9.10661751906086
aF9.10661751906086
aF9.10661751906086
aF9.10661751906086
aF9.10661751906086
aF9.10661751906086
aF9.10661751906086
aF9.10661751906086
aF9.10661751906086
aF9.10661751906086
aF9.10661751906086
aF9.10661751906086
aF9.10661751906086
aF9.10661751906086
aF9.10661751906086
aF9.10661751906086
aF9.10661751906086
aF9.10661751906086
aF9.10661751906086
aF9.10661751906086
aF9.10661751906086
aF9.10661751906086
aF9.10661751906086
aF9.10661751906086
aF9.10661751906086
aF9.10661751906086
aF9.10661751906086
aF9.10661751906086
aF9.10661751906086
aF9.10661751906086
aF9.10661751906086
aF9.10661751906086
aF9.10661751906086
aF9.10661751906086
aF9.10661751906086
aF9.10661751906086
aF9.10661751906086
aF9.10661751906086
aF9.10661751906086
aF9.10661751906086
aF9.10661751906086
aF9.10661751906086
aF9.10661751906086
aF9.10661751906086
aF9.10661751906086
aF9.10661751906086
aF9.10661751906086
aF9.10661751906086
aF9.10661751906086
aF9.10661751906086
aF9.10661751906086
aF9.10661751906086
aF9.10661751906086
aF9.10661751906086
aF9.10661751906086
aF9.10661751906086
aF9.10661751906086
aF9.10661751906086
aF9.10661751906086
aF9.10661751906086
aF9.10661751906086
aF9.10661751906086
aF9.10661751906086
aF9.10661751906086
aF9.10661751906086
aF9.10661751906086
aF9.10661751906086
aF9.10661751906086
aF9.10661751906086
aF9.10661751906086
aF9.10661751906086
aF9.10661751906086
aF9.10661751906086
aF9.10661751906086
aF9.10661751906086
aF9.10661751906086
aF9.10661751906086
aF9.10661751906086
aF9.10661751906086
aF9.10661751906086
aF9.10661751906086
aF9.10661751906086
aF9.10661751906086
aF9.10661751906086
aF9.10661751906086
aF9.10661751906086
aF9.10661751906086
aF9.10661751906086
aF9.10661751906086
aF9.10661751906086
aF9.10661751906086
aF9.10661751906086
aF9.10661751906086
aF9.10661751906086
aF9.10661751906086
aF9.10661751906086
aF9.10661751906086
aF9.10661751906086
aF9.10661751906086
aF9.10661751906086
aF9.10661751906086
aF9.10661751906086
aF9.10661751906086
aF9.10661751906086
aF9.10661751906086
aF9.10661751906086
aF9.10661751906086
aF9.10661751906086
aF9.10661751906086
aF9.10661751906086
aF9.10661751906086
aF9.10661751906086
aF9.10661751906086
aF9.10661751906086
aF9.10661751906086
aF9.10661751906086
aF9.10661751906086
aF9.10661751906086
aF9.10661751906086
aF9.10661751906086
aF9.10661751906086
aF9.10661751906086
aF9.10661751906086
aF9.10661751906086
aF9.10661751906086
aF9.10661751906086
aF9.10661751906086
aF9.10661751906086
aF9.10661751906086
aF9.10661751906086
aF9.10661751906086
aF9.10661751906086
aF9.10661751906086
aF9.10661751906086
aF9.10661751906086
aF9.10661751906086
aF9.10661751906086
aF9.10661751906086
aF9.10661751906086
aF9.10661751906086
aF9.10661751906086
aF9.10661751906086
aF9.10661751906086
aF9.10661751906086
aF9.10661751906086
aF9.10661751906086
aF9.10661751906086
aF9.10661751906086
aF9.10661751906086
aF9.10661751906086
aF9.10661751906086
aF9.10661751906086
aF9.10661751906086
aF9.10661751906086
aF9.10661751906086
aF9.10661751906086
aF9.10661751906086
aF9.10661751906086
aF9.10661751906086
aF9.10661751906086
aF9.10661751906086
aF9.10661751906086
aF9.10661751906086
aF9.10661751906086
aF9.10661751906086
aF9.10661751906086
aF9.10661751906086
aF9.10661751906086
aF9.10661751906086
aF9.10661751906086
aF9.10661751906086
aF9.10661751906086
aF9.10661751906086
aF9.10661751906086
aF9.10661751906086
aF9.10661751906086
aF9.10661751906086
aF9.10661751906086
aF9.10661751906086
aF9.10661751906086
aF9.10661751906086
aF9.10661751906086
aF9.10661751906086
aF9.10661751906086
aF9.10661751906086
aF9.10661751906086
aF9.10661751906086
aF9.10661751906086
aF9.10661751906086
aF9.10661751906086
aF9.10661751906086
aF9.10661751906086
aF9.10661751906086
aF9.10661751906086
aF9.10661751906086
aF9.10661751906086
aF9.10661751906086
aF9.10661751906086
aF9.10661751906086
aF9.10661751906086
aF9.10661751906086
aF9.10661751906086
aF9.10661751906086
aF9.10661751906086
aF9.10661751906086
aF9.10661751906086
aF9.10661751906086
aF9.10661751906086
aF9.10661751906086
aF9.10661751906086
aF9.10661751906086
aF9.10661751906086
aF9.10661751906086
aF9.10661751906086
aF9.10661751906086
aF9.10661751906086
aF9.10661751906086
aF9.10661751906086
aF9.10661751906086
aF9.10661751906086
aF9.10661751906086
aF9.10661751906086
aF9.10661751906086
aF9.10661751906086
aF9.10661751906086
aF9.10661751906086
aF9.10661751906086
aF9.10661751906086
aF9.10661751906086
aF9.10661751906086
aF9.10661751906086
aF9.10661751906086
aF9.10661751906086
aF9.10661751906086
aF9.10661751906086
aF9.10661751906086
aF9.10661751906086
aF9.10661751906086
aF9.10661751906086
aF9.10661751906086
aF9.10661751906086
aF9.10661751906086
aF9.10661751906086
aF9.10661751906086
aF9.10661751906086
aF9.10661751906086
aF9.10661751906086
aF9.10661751906086
aF9.10661751906086
aF9.10661751906086
aF9.10661751906086
aF9.10661751906086
aF9.10661751906086
aF9.10661751906086
aF9.10661751906086
aF9.10661751906086
aF9.10661751906086
aF9.10661751906086
aF9.10661751906086
aF9.10661751906086
aF9.10661751906086
aF9.10661751906086
aF9.10661751906086
aF9.10661751906086
aF9.10661751906086
aF9.10661751906086
aF9.10661751906086
aF9.10661751906086
aF9.10661751906086
aF9.10661751906086
aF9.10661751906086
aF9.10661751906086
aF9.10661751906086
aF9.10661751906086
aF9.10661751906086
aF9.10661751906086
aF9.10661751906086
aF9.10661751906086
aF9.10661751906086
aF9.10661751906086
aF9.10661751906086
aF9.10661751906086
aF9.10661751906086
aF9.10661751906086
aF9.10661751906086
aF9.10661751906086
aF9.10661751906086
aF9.10661751906086
aF9.10661751906086
aF9.10661751906086
aF9.10661751906086
aF9.10661751906086
aF9.10661751906086
aF9.10661751906086
aF9.10661751906086
aF9.10661751906086
aF9.10661751906086
aF9.10661751906086
aF9.10661751906086
aF9.10661751906086
aF9.10661751906086
aF9.10661751906086
aF9.10661751906086
aF9.10661751906086
aF9.10661751906086
aF9.10661751906086
aF9.10661751906086
aF9.10661751906086
aF9.10661751906086
aF9.10661751906086
aF9.10661751906086
aF9.10661751906086
aF9.10661751906086
aF9.10661751906086
aF9.10661751906086
aF9.10661751906086
aF9.10661751906086
aF9.10661751906086
aF9.10661751906086
aF9.10661751906086
aF9.10661751906086
aF9.10661751906086
aF9.10661751906086
aF9.10661751906086
aF9.10661751906086
aF9.10661751906086
aF9.10661751906086
aF9.10661751906086
aF9.10661751906086
aF9.10661751906086
aF9.10661751906086
aF9.10661751906086
aF9.10661751906086
aF9.10661751906086
aF9.10661751906086
aF9.10661751906086
aF9.10661751906086
aF9.10661751906086
aF9.10661751906086
aF9.10661751906086
aF9.10661751906086
aF9.10661751906086
aF9.10661751906086
aF9.10661751906086
aF9.10661751906086
aF9.10661751906086
aF9.10661751906086
aF9.10661751906086
aF9.10661751906086
aF9.10661751906086
aF9.10661751906086
aF9.10661751906086
aF9.10661751906086
aF9.10661751906086
aF9.10661751906086
aF9.10661751906086
aF9.10661751906086
aF9.10661751906086
aF9.10661751906086
aF9.10661751906086
aF9.10661751906086
aF9.10661751906086
aF9.10661751906086
aF9.10661751906086
aF9.10661751906086
aF9.10661751906086
aF9.10661751906086
aF9.10661751906086
aF9.10661751906086
aF9.10661751906086
aF9.10661751906086
aF9.10661751906086
aF9.10661751906086
aF9.10661751906086
aF9.10661751906086
aF9.10661751906086
aF9.10661751906086
aF9.10661751906086
aF9.10661751906086
aF9.10661751906086
aF9.10661751906086
aF9.10661751906086
aF9.10661751906086
aF9.10661751906086
aF9.10661751906086
aF9.10661751906086
aF9.10661751906086
aF9.10661751906086
aF9.10661751906086
aF9.10661751906086
aF9.10661751906086
aF9.10661751906086
aF9.10661751906086
aF9.10661751906086
aF9.10661751906086
aF9.10661751906086
aF9.10661751906086
aF9.10661751906086
aF9.10661751906086
aF9.10661751906086
aF9.10661751906086
aF9.10661751906086
aF9.10661751906086
aF9.10661751906086
aF9.10661751906086
aF9.10661751906086
aF9.10661751906086
aF9.10661751906086
aF9.10661751906086
aF9.10661751906086
aF9.10661751906086
aF9.10661751906086
aF9.10661751906086
aF9.10661751906086
aF9.10661751906086
aF9.10661751906086
aF9.10661751906086
aF9.10661751906086
aF9.10661751906086
aF9.10661751906086
aF9.10661751906086
aF9.10661751906086
aF9.10661751906086
aF9.10661751906086
aF9.10661751906086
aF9.10661751906086
aF9.10661751906086
aF9.10661751906086
aF9.10661751906086
aF9.10661751906086
aF9.10661751906086
aF9.10661751906086
aF9.10661751906086
aF9.10661751906086
aF9.10661751906086
aF9.10661751906086
aF9.10661751906086
aF9.10661751906086
aF9.10661751906086
aF9.10661751906086
aF9.10661751906086
aF9.10661751906086
aF9.10661751906086
aF9.10661751906086
aF9.10661751906086
aF9.10661751906086
aF9.10661751906086
aF9.10661751906086
aF9.10661751906086
aF9.10661751906086
aF9.10661751906086
aF9.10661751906086
aF9.10661751906086
aF9.10661751906086
aF9.10661751906086
aF9.10661751906086
aF9.10661751906086
aF9.10661751906086
aF9.10661751906086
aF9.10661751906086
aF9.10661751906086
aF9.10661751906086
aF9.10661751906086
aF9.10661751906086
aF9.10661751906086
aF9.10661751906086
aF9.10661751906086
aF9.10661751906086
aF9.10661751906086
aF9.10661751906086
aF9.10661751906086
aF9.10661751906086
aF9.10661751906086
aF9.10661751906086
aF9.10661751906086
aF9.10661751906086
aF9.10661751906086
aF9.10661751906086
aF9.10661751906086
aF9.10661751906086
aF9.10661751906086
aF9.10661751906086
aF9.10661751906086
aF9.10661751906086
aF9.10661751906086
aF9.10661751906086
aF9.10661751906086
aF9.10661751906086
aF9.10661751906086
aF9.10661751906086
aF9.10661751906086
aF9.10661751906086
aF9.10661751906086
aF9.10661751906086
aF9.10661751906086
aF9.10661751906086
aF9.10661751906086
aF9.10661751906086
aF9.10661751906086
aF9.10661751906086
aF9.10661751906086
aF9.10661751906086
aF9.10661751906086
aF9.10661751906086
aF9.10661751906086
aF9.10661751906086
aF9.10661751906086
aF9.10661751906086
aF9.10661751906086
aF9.10661751906086
aF9.10661751906086
aF9.10661751906086
aF9.10661751906086
aF9.10661751906086
aF9.10661751906086
aF9.10661751906086
aF9.10661751906086
aF9.10661751906086
aF9.10661751906086
aF9.10661751906086
aF9.10661751906086
aF9.10661751906086
aF9.10661751906086
aF9.10661751906086
aF9.10661751906086
aF9.10661751906086
aF9.10661751906086
aF9.10661751906086
aF9.10661751906086
aF9.10661751906086
aF9.10661751906086
aF9.10661751906086
aF9.10661751906086
aF9.10661751906086
aF9.10661751906086
aF9.10661751906086
aF9.10661751906086
aF9.10661751906086
aF9.10661751906086
aF9.10661751906086
aF9.10661751906086
aF9.10661751906086
aF9.10661751906086
aF9.10661751906086
aF9.10661751906086
aF9.10661751906086
aF9.10661751906086
aF9.10661751906086
aF9.10661751906086
aF9.10661751906086
aF9.10661751906086
aF9.10661751906086
aF9.10661751906086
aF9.10661751906086
aF9.10661751906086
aF9.10661751906086
aF9.10661751906086
aF9.10661751906086
aF9.10661751906086
aF9.10661751906086
aF9.10661751906086
aF9.10661751906086
aF9.10661751906086
aF9.10661751906086
aF9.10661751906086
aF9.10661751906086
aF9.10661751906086
aF9.10661751906086
aF9.10661751906086
aF9.10661751906086
aF9.10661751906086
aF9.10661751906086
aF9.10661751906086
aF9.10661751906086
aF9.10661751906086
aF9.10661751906086
aF9.10661751906086
aF9.10661751906086
aF9.10661751906086
aF9.10661751906086
aF9.10661751906086
aF9.10661751906086
aF9.10661751906086
aF9.10661751906086
aF9.10661751906086
aF9.10661751906086
aF9.10661751906086
aF9.10661751906086
aF9.10661751906086
aF9.10661751906086
aF9.10661751906086
aF9.10661751906086
aF9.10661751906086
aF9.10661751906086
aF9.10661751906086
aF9.10661751906086
aF9.10661751906086
aF9.10661751906086
aF9.10661751906086
aF9.10661751906086
aF9.10661751906086
aF9.10661751906086
aF9.10661751906086
aF9.10661751906086
aF9.10661751906086
aF9.10661751906086
aF9.10661751906086
aF9.10661751906086
aF9.10661751906086
aF9.10661751906086
aF9.10661751906086
aF9.10661751906086
aF9.10661751906086
aF9.10661751906086
aF9.10661751906086
aF9.10661751906086
aF9.10661751906086
aF9.10661751906086
aF9.10661751906086
aF9.10661751906086
aF9.10661751906086
aF9.10661751906086
aF9.10661751906086
aF9.10661751906086
aF9.10661751906086
aF9.10661751906086
aF9.10661751906086
aF9.10661751906086
aF9.10661751906086
aF9.10661751906086
aF9.10661751906086
aF9.10661751906086
aF9.10661751906086
aF9.10661751906086
aF9.10661751906086
aF9.10661751906086
aF9.10661751906086
aF9.10661751906086
aF9.10661751906086
aF9.10661751906086
aF9.10661751906086
aF9.10661751906086
aF9.10661751906086
aF9.10661751906086
aF9.10661751906086
aF9.10661751906086
aF9.10661751906086
aF9.10661751906086
aF9.10661751906086
aF9.10661751906086
aF9.10661751906086
aF9.10661751906086
aF9.10661751906086
aF9.10661751906086
aF9.10661751906086
aF9.10661751906086
aF9.10661751906086
aF9.10661751906086
aF9.10661751906086
aF9.10661751906086
aF9.10661751906086
aF9.10661751906086
aF9.10661751906086
aF9.10661751906086
aF9.10661751906086
aF9.10661751906086
aF9.10661751906086
aF9.10661751906086
aF9.10661751906086
aF9.10661751906086
aF9.10661751906086
aF9.10661751906086
aF9.10661751906086
aF9.10661751906086
aF9.10661751906086
aF9.10661751906086
aF9.10661751906086
aF9.10661751906086
aF9.10661751906086
aF9.10661751906086
aF9.10661751906086
aF9.10661751906086
aF9.10661751906086
aF9.10661751906086
aF9.10661751906086
aF9.10661751906086
aF9.10661751906086
aF9.10661751906086
aF9.10661751906086
aF9.10661751906086
aF9.10661751906086
aF9.10661751906086
aF9.10661751906086
aF9.10661751906086
aF9.10661751906086
aF9.10661751906086
aF9.10661751906086
aF9.10661751906086
aF9.10661751906086
aF9.10661751906086
aF9.10661751906086
aF9.10661751906086
aF9.10661751906086
aF9.10661751906086
aF9.10661751906086
aF9.10661751906086
aF9.10661751906086
aF9.10661751906086
aF9.10661751906086
aF9.10661751906086
aF9.10661751906086
aF9.10661751906086
aF9.10661751906086
aF9.10661751906086
aF9.10661751906086
aF9.10661751906086
aF9.10661751906086
aF9.10661751906086
aF9.10661751906086
aF9.10661751906086
aF9.10661751906086
aF9.10661751906086
aF9.10661751906086
aF9.10661751906086
aF9.10661751906086
aF9.10661751906086
aF9.10661751906086
aF9.10661751906086
aF9.10661751906086
aF9.10661751906086
aF9.10661751906086
aF9.10661751906086
aF9.10661751906086
aF9.10661751906086
aF9.10661751906086
aF9.10661751906086
aF9.10661751906086
aF9.10661751906086
aF9.10661751906086
aF9.10661751906086
aF9.10661751906086
aF9.10661751906086
aF9.10661751906086
aF9.10661751906086
aF9.10661751906086
aF9.10661751906086
aF9.10661751906086
aF9.10661751906086
aF9.10661751906086
aF9.10661751906086
aF9.10661751906086
aF9.10661751906086
aF9.10661751906086
aF9.10661751906086
aF9.10661751906086
aF9.10661751906086
aF9.10661751906086
aF9.10661751906086
aF9.10661751906086
aF9.10661751906086
aF9.10661751906086
aF9.10661751906086
aF9.10661751906086
aF9.10661751906086
aF9.10661751906086
aF9.10661751906086
aF9.10661751906086
aF9.10661751906086
aF9.10661751906086
aF9.10661751906086
aF9.10661751906086
aF9.10661751906086
aF9.10661751906086
aF9.10661751906086
aF9.10661751906086
aF9.10661751906086
aF9.10661751906086
aF9.10661751906086
aF9.10661751906086
aF9.10661751906086
aF9.10661751906086
aF9.10661751906086
aF9.10661751906086
aF9.10661751906086
aF9.10661751906086
aF9.10661751906086
aF9.10661751906086
aF9.10661751906086
aF9.10661751906086
aF9.10661751906086
aF9.10661751906086
aF9.10661751906086
aF9.10661751906086
aF9.10661751906086
aF9.10661751906086
aF9.10661751906086
aF9.10661751906086
aF9.10661751906086
aF9.10661751906086
aF9.10661751906086
aF9.10661751906086
aF9.10661751906086
aF9.10661751906086
aF9.10661751906086
aF9.10661751906086
aF9.10661751906086
aF9.10661751906086
aF9.10661751906086
aF9.10661751906086
aF9.10661751906086
aF9.10661751906086
aF9.10661751906086
aF9.10661751906086
aF9.10661751906086
aF9.10661751906086
aF9.10661751906086
aF9.10661751906086
aF9.10661751906086
aF9.10661751906086
aF9.10661751906086
aF9.10661751906086
aF9.10661751906086
aF9.10661751906086
aF9.10661751906086
aF9.10661751906086
aF9.10661751906086
aF9.10661751906086
aF9.10661751906086
aF9.10661751906086
aF9.10661751906086
aF9.10661751906086
aF9.10661751906086
aF9.10661751906086
aF9.10661751906086
aF9.10661751906086
aF9.10661751906086
aF9.10661751906086
aF9.10661751906086
aF9.10661751906086
aF9.10661751906086
aF9.10661751906086
aF9.10661751906086
aF9.10661751906086
aF9.10661751906086
aF9.10661751906086
aF9.10661751906086
aF9.10661751906086
aF9.10661751906086
aF9.10661751906086
aF9.10661751906086
aF9.10661751906086
aF9.10661751906086
aF9.10661751906086
aF9.10661751906086
aF9.10661751906086
aF9.10661751906086
aF9.10661751906086
aF9.10661751906086
aF9.10661751906086
aF9.10661751906086
aF9.10661751906086
aF9.10661751906086
aF9.10661751906086
aF9.10661751906086
aF9.10661751906086
aF9.10661751906086
aF9.10661751906086
aF9.10661751906086
aF9.10661751906086
aF9.10661751906086
aF9.10661751906086
aF9.10661751906086
aF9.10661751906086
aF9.10661751906086
aF9.10661751906086
aF9.10661751906086
aF9.10661751906086
aF9.10661751906086
aF9.10661751906086
aF9.10661751906086
aF9.10661751906086
aF9.10661751906086
aF9.10661751906086
aF9.10661751906086
aF9.10661751906086
aF9.10661751906086
aF9.10661751906086
aF9.10661751906086
aF9.10661751906086
aF9.10661751906086
aF9.10661751906086
aF9.10661751906086
aF9.10661751906086
aF9.10661751906086
aF9.10661751906086
aF9.10661751906086
aF9.10661751906086
aF9.10661751906086
aF9.10661751906086
aF9.10661751906086
aF9.10661751906086
aF9.10661751906086
aF9.10661751906086
aF9.10661751906086
aF9.10661751906086
aF9.10661751906086
aF9.10661751906086
aF9.10661751906086
aF9.10661751906086
aF9.10661751906086
aF9.10661751906086
aF9.10661751906086
aF9.10661751906086
aF9.10661751906086
aF9.10661751906086
aF9.10661751906086
aF9.10661751906086
aF9.10661751906086
aF9.10661751906086
aF9.10661751906086
aF9.10661751906086
aF9.10661751906086
aF9.10661751906086
aF9.10661751906086
aF9.10661751906086
aF9.10661751906086
aF9.10661751906086
aF9.10661751906086
aF9.10661751906086
aF9.10661751906086
aF9.10661751906086
aF9.10661751906086
aF9.10661751906086
aF9.10661751906086
aF9.10661751906086
aF9.10661751906086
aF9.10661751906086
aF9.10661751906086
aF9.10661751906086
aF9.10661751906086
aF9.10661751906086
aF9.10661751906086
aF9.10661751906086
aF9.10661751906086
aF9.10661751906086
aF9.10661751906086
aF9.10661751906086
aF9.10661751906086
aF9.10661751906086
aF9.10661751906086
aF9.10661751906086
aF9.10661751906086
aF9.10661751906086
aF9.10661751906086
aF9.10661751906086
aF9.10661751906086
aF9.10661751906086
aF9.10661751906086
aF9.10661751906086
aF9.10661751906086
aF9.10661751906086
aF9.10661751906086
aF9.10661751906086
aF9.10661751906086
aF9.10661751906086
aF9.10661751906086
aF9.10661751906086
aF9.10661751906086
aF9.10661751906086
aF9.10661751906086
aF9.10661751906086
aF9.10661751906086
aF9.10661751906086
aF9.10661751906086
aF9.10661751906086
aF9.10661751906086
aF9.10661751906086
aF9.10661751906086
aF9.10661751906086
aF9.10661751906086
aF9.10661751906086
aF9.10661751906086
aF9.10661751906086
aF9.10661751906086
aF9.10661751906086
aF9.10661751906086
aF9.10661751906086
aF9.10661751906086
aF9.10661751906086
aF9.10661751906086
aF9.10661751906086
aF9.10661751906086
aF9.10661751906086
aF9.10661751906086
aF9.10661751906086
aF9.10661751906086
aF9.10661751906086
aF9.10661751906086
aF9.10661751906086
aF9.10661751906086
aF9.10661751906086
aF9.10661751906086
aF9.10661751906086
aF9.10661751906086
aF9.10661751906086
aF9.10661751906086
aF9.10661751906086
aF9.10661751906086
aF9.10661751906086
aF9.10661751906086
aF9.10661751906086
aF9.10661751906086
aF9.10661751906086
aF9.10661751906086
aF9.10661751906086
aF9.10661751906086
aF9.10661751906086
aF9.10661751906086
aF9.10661751906086
aF9.10661751906086
aF9.10661751906086
aF9.10661751906086
aF9.10661751906086
aF9.10661751906086
aF9.10661751906086
aF9.10661751906086
aF9.10661751906086
aF9.10661751906086
aF9.10661751906086
aF9.10661751906086
aF9.10661751906086
aF9.10661751906086
aF9.10661751906086
aF9.10661751906086
aF9.10661751906086
aF9.10661751906086
aF9.10661751906086
aF9.10661751906086
aF9.10661751906086
aF9.10661751906086
aF9.10661751906086
aF9.10661751906086
aF9.10661751906086
aF9.10661751906086
aF9.10661751906086
aF9.10661751906086
aF9.10661751906086
aF9.10661751906086
aF9.10661751906086
aF9.10661751906086
aF9.10661751906086
aF9.10661751906086
aF9.10661751906086
aF9.10661751906086
aF9.10661751906086
aF9.10661751906086
aF9.10661751906086
aF9.10661751906086
aF9.10661751906086
aF9.10661751906086
aF9.10661751906086
aF9.10661751906086
aF9.10661751906086
aF9.10661751906086
aF9.10661751906086
aF9.10661751906086
aF9.10661751906086
aF9.10661751906086
aF9.10661751906086
aF9.10661751906086
aF9.10661751906086
aF9.10661751906086
aF9.10661751906086
aF9.10661751906086
aF9.10661751906086
aF9.10661751906086
aF9.10661751906086
aF9.10661751906086
aF9.10661751906086
aF9.10661751906086
aF9.10661751906086
aF9.10661751906086
aF9.10661751906086
aF9.10661751906086
aF9.10661751906086
aF9.10661751906086
aF9.10661751906086
aF9.10661751906086
aF9.10661751906086
aF9.10661751906086
aF9.10661751906086
aF9.10661751906086
aF9.10661751906086
aF9.10661751906086
aF9.10661751906086
aF9.10661751906086
aF9.10661751906086
aF9.10661751906086
aF9.10661751906086
aF9.10661751906086
aF9.10661751906086
aF9.10661751906086
aF9.10661751906086
aF9.10661751906086
aF9.10661751906086
aF9.10661751906086
aF9.10661751906086
aF9.10661751906086
aF9.10661751906086
aF9.10661751906086
aF9.10661751906086
aF9.10661751906086
aF9.10661751906086
aF9.10661751906086
aF9.10661751906086
aF9.10661751906086
aF9.10661751906086
aF9.10661751906086
aF9.10661751906086
aF9.10661751906086
aF9.10661751906086
aF9.10661751906086
aF9.10661751906086
aF9.10661751906086
aF9.10661751906086
aF9.10661751906086
aF9.10661751906086
aF9.10661751906086
aF9.10661751906086
aF9.10661751906086
aF9.10661751906086
aF9.10661751906086
aF9.10661751906086
aF9.10661751906086
aF9.10661751906086
aF9.10661751906086
aF9.10661751906086
aF9.10661751906086
aF9.10661751906086
aF9.10661751906086
aF9.10661751906086
aF9.10661751906086
aF9.10661751906086
aF9.10661751906086
aF9.10661751906086
aF9.10661751906086
aF9.10661751906086
aF9.10661751906086
aF9.10661751906086
aF9.10661751906086
aF9.10661751906086
aF9.10661751906086
aF9.10661751906086
aF9.10661751906086
aF9.10661751906086
aF9.10661751906086
aF9.10661751906086
aF9.10661751906086
aF9.10661751906086
aF9.10661751906086
aF9.10661751906086
aF9.10661751906086
aF9.10661751906086
aF9.10661751906086
aF9.10661751906086
aF9.10661751906086
aF9.10661751906086
aF9.10661751906086
aF9.10661751906086
aF9.10661751906086
aF9.10661751906086
aF9.10661751906086
aF9.10661751906086
aF9.10661751906086
aF9.10661751906086
aF9.10661751906086
aF9.10661751906086
aF9.10661751906086
aF9.10661751906086
aF9.10661751906086
aF9.10661751906086
aF9.10661751906086
aF9.10661751906086
aF9.10661751906086
aF9.10661751906086
aF9.10661751906086
aF9.10661751906086
aF9.10661751906086
aF9.10661751906086
aF9.10661751906086
aF9.10661751906086
aF9.10661751906086
aF9.10661751906086
aF9.10661751906086
aF9.10661751906086
aF9.10661751906086
aF9.10661751906086
aF9.10661751906086
aF9.10661751906086
aF9.10661751906086
aF9.10661751906086
aF9.10661751906086
aF9.10661751906086
aF9.10661751906086
aF9.10661751906086
aF9.10661751906086
aF9.10661751906086
aF9.10661751906086
aF9.10661751906086
aF9.10661751906086
aF9.10661751906086
aF9.10661751906086
aF9.10661751906086
aF9.10661751906086
aF9.10661751906086
aF9.10661751906086
aF9.10661751906086
aF9.10661751906086
aF9.10661751906086
aF9.10661751906086
aF9.10661751906086
aF9.10661751906086
aF9.10661751906086
aF9.10661751906086
aF9.10661751906086
aF9.10661751906086
aF9.10661751906086
aF9.10661751906086
aF9.10661751906086
aF9.10661751906086
aF9.10661751906086
aF9.10661751906086
aF9.10661751906086
aF9.10661751906086
aF9.10661751906086
aF9.10661751906086
aF9.10661751906086
aF9.10661751906086
aF9.10661751906086
aF9.10661751906086
aF9.10661751906086
aF9.10661751906086
aF9.10661751906086
aF9.10661751906086
aF9.10661751906086
aF9.10661751906086
aF9.10661751906086
aF9.10661751906086
aF9.10661751906086
aF9.10661751906086
aF9.10661751906086
aF9.10661751906086
aF9.10661751906086
aF9.10661751906086
aF9.10661751906086
aF9.10661751906086
aF9.10661751906086
aF9.10661751906086
aF9.10661751906086
aF9.10661751906086
aF9.10661751906086
aF9.10661751906086
aF9.10661751906086
aF9.10661751906086
aF9.10661751906086
aF9.10661751906086
aF9.10661751906086
aF9.10661751906086
aF9.10661751906086
aF9.10661751906086
aF9.10661751906086
aF9.10661751906086
aF9.10661751906086
aF9.10661751906086
aF9.10661751906086
aF9.10661751906086
aF9.10661751906086
aF9.10661751906086
aF9.10661751906086
aF9.10661751906086
aF9.10661751906086
aF9.10661751906086
aF9.10661751906086
aF9.10661751906086
aF9.10661751906086
aF9.10661751906086
aF9.10661751906086
aF9.10661751906086
aF9.10661751906086
aF9.10661751906086
aF9.10661751906086
aF9.10661751906086
aF9.10661751906086
aF9.10661751906086
aF9.10661751906086
aF9.10661751906086
aF9.10661751906086
aF9.10661751906086
aF9.10661751906086
aF9.10661751906086
aF9.10661751906086
aF9.10661751906086
aF9.10661751906086
aF9.10661751906086
aF9.10661751906086
aF9.10661751906086
aF9.10661751906086
aF9.10661751906086
aF9.10661751906086
aF9.10661751906086
aF9.10661751906086
aF9.10661751906086
aF9.10661751906086
aF9.10661751906086
aF9.10661751906086
aF9.10661751906086
aF9.10661751906086
aF9.10661751906086
aF9.10661751906086
aF9.10661751906086
aF9.10661751906086
aF9.10661751906086
aF9.10661751906086
aF9.10661751906086
aF9.10661751906086
aF9.10661751906086
aF9.10661751906086
aF9.10661751906086
aF9.10661751906086
aF9.10661751906086
aF9.10661751906086
aF9.10661751906086
aF9.10661751906086
aF9.10661751906086
aF9.10661751906086
aF9.10661751906086
aF9.10661751906086
aF9.10661751906086
aF9.10661751906086
aF9.10661751906086
aF9.10661751906086
aF9.10661751906086
aF9.10661751906086
aF9.10661751906086
aF9.10661751906086
aF9.10661751906086
aF9.10661751906086
aF9.10661751906086
aF9.10661751906086
aF9.10661751906086
aF9.10661751906086
aF9.10661751906086
aF9.10661751906086
aF9.10661751906086
aF9.10661751906086
aF9.10661751906086
aF9.10661751906086
aF9.10661751906086
aF9.10661751906086
aF9.10661751906086
aF9.10661751906086
aF9.10661751906086
aF9.10661751906086
aF9.10661751906086
aF9.10661751906086
aF9.10661751906086
aF9.10661751906086
aF9.10661751906086
aF9.10661751906086
aF9.10661751906086
aF9.10661751906086
aF9.10661751906086
aF9.10661751906086
aF9.10661751906086
aF9.10661751906086
aF9.10661751906086
aF9.10661751906086
aF9.10661751906086
aF9.10661751906086
aF9.10661751906086
aF9.10661751906086
aF9.10661751906086
aF9.10661751906086
aF9.10661751906086
aF9.10661751906086
aF9.10661751906086
aF9.10661751906086
aF9.10661751906086
aF9.10661751906086
aF9.10661751906086
aF9.10661751906086
aF9.10661751906086
aF9.10661751906086
aF9.10661751906086
aF9.10661751906086
aF9.10661751906086
aF9.10661751906086
aF9.10661751906086
aF9.10661751906086
aF9.10661751906086
aF9.10661751906086
aF9.10661751906086
aF9.10661751906086
aF9.10661751906086
aF9.10661751906086
aF9.10661751906086
aF9.10661751906086
aF9.10661751906086
aF9.10661751906086
aF9.10661751906086
aF9.10661751906086
aF9.10661751906086
aF9.10661751906086
aF9.10661751906086
aF9.10661751906086
aF9.10661751906086
aF9.10661751906086
aF9.10661751906086
aF9.10661751906086
aF9.10661751906086
aF9.10661751906086
aF9.10661751906086
aF9.10661751906086
aF9.10661751906086
aF9.10661751906086
aF9.10661751906086
aF9.10661751906086
aF9.10661751906086
aF9.10661751906086
aF9.10661751906086
aF9.10661751906086
aF9.10661751906086
aF9.10661751906086
aF9.10661751906086
aF9.10661751906086
aF9.10661751906086
aF9.10661751906086
aF9.10661751906086
aF9.10661751906086
aF9.10661751906086
aF9.10661751906086
aF9.10661751906086
aF9.10661751906086
aF9.10661751906086
aF9.10661751906086
aF9.10661751906086
aF9.10661751906086
aF9.10661751906086
aF9.10661751906086
aF9.10661751906086
aF9.10661751906086
aF9.10661751906086
aF9.10661751906086
aF9.10661751906086
aF9.10661751906086
aF9.10661751906086
aF9.10661751906086
aF9.10661751906086
aF9.10661751906086
aF9.10661751906086
aF9.10661751906086
aF9.10661751906086
aF9.10661751906086
aF9.10661751906086
aF9.10661751906086
aF9.10661751906086
aF9.10661751906086
aF9.10661751906086
aF9.10661751906086
aF9.10661751906086
aF9.10661751906086
aF9.10661751906086
aF9.10661751906086
aF9.10661751906086
aF9.10661751906086
aF9.10661751906086
aF9.10661751906086
aF9.10661751906086
aF9.10661751906086
aF9.10661751906086
aF9.10661751906086
aF9.10661751906086
aF9.10661751906086
aF9.10661751906086
aF9.10661751906086
aF9.10661751906086
aF9.10661751906086
aF9.10661751906086
aF9.10661751906086
aF9.10661751906086
aF9.10661751906086
aF9.10661751906086
aF9.10661751906086
aF9.10661751906086
aF9.10661751906086
aF9.10661751906086
aF9.10661751906086
aF9.10661751906086
aF9.10661751906086
aF9.10661751906086
aF9.10661751906086
aF9.10661751906086
aF9.10661751906086
aF9.10661751906086
aF9.10661751906086
aF9.10661751906086
aF9.10661751906086
aF9.10661751906086
aF9.10661751906086
aF9.10661751906086
aF9.10661751906086
aF9.10661751906086
aF9.10661751906086
aF9.10661751906086
aF9.10661751906086
aF9.10661751906086
aF9.10661751906086
aF9.10661751906086
aF9.10661751906086
aF9.10661751906086
aF9.10661751906086
aF9.10661751906086
aF9.10661751906086
aF9.10661751906086
aF9.10661751906086
aF9.10661751906086
aF9.10661751906086
aF9.10661751906086
aF9.10661751906086
aF9.10661751906086
aF9.10661751906086
aF9.10661751906086
aF9.10661751906086
aF9.10661751906086
aF9.10661751906086
aF9.10661751906086
aF9.10661751906086
aF9.10661751906086
aF9.10661751906086
aF9.10661751906086
aF9.10661751906086
aF9.10661751906086
aF9.10661751906086
aF9.10661751906086
aF9.10661751906086
aF9.10661751906086
aF9.10661751906086
aF9.10661751906086
aF9.10661751906086
aF9.10661751906086
aF9.10661751906086
aF9.10661751906086
aF9.10661751906086
aF9.10661751906086
aF9.10661751906086
aF9.10661751906086
aF9.10661751906086
aF9.10661751906086
aF9.10661751906086
aF9.10661751906086
aF9.10661751906086
aF9.10661751906086
aF9.10661751906086
aF9.10661751906086
aF9.10661751906086
aF9.10661751906086
aF9.10661751906086
aF9.10661751906086
aF9.10661751906086
aF9.10661751906086
aF9.10661751906086
aF9.10661751906086
aF9.10661751906086
aF9.10661751906086
aF9.10661751906086
aF9.10661751906086
aF9.10661751906086
aF9.10661751906086
aF9.10661751906086
aF9.10661751906086
aF9.10661751906086
aF9.10661751906086
aF9.10661751906086
aF9.10661751906086
aF9.10661751906086
aF9.10661751906086
aF9.10661751906086
aF9.10661751906086
aF9.10661751906086
aF9.10661751906086
aF9.10661751906086
aF9.10661751906086
aF9.10661751906086
aF9.10661751906086
aF9.10661751906086
aF9.10661751906086
aF9.10661751906086
aF9.10661751906086
aF9.10661751906086
aF9.10661751906086
aF9.10661751906086
aF9.10661751906086
aF9.10661751906086
aF9.10661751906086
aF9.10661751906086
aF9.10661751906086
aF9.10661751906086
aF9.10661751906086
aF9.10661751906086
aF9.10661751906086
aF9.10661751906086
aF9.10661751906086
aF9.10661751906086
aF9.10661751906086
aF9.10661751906086
aF9.10661751906086
aF9.10661751906086
aF9.10661751906086
aF9.10661751906086
aF9.10661751906086
aF9.10661751906086
aF9.10661751906086
aF9.10661751906086
aF9.10661751906086
aF9.10661751906086
aF9.10661751906086
aF9.10661751906086
aF9.10661751906086
aF9.10661751906086
aF9.10661751906086
aF9.10661751906086
aF9.10661751906086
aF9.10661751906086
aF9.10661751906086
aF9.10661751906086
aF9.10661751906086
aF9.10661751906086
aF9.10661751906086
aF9.10661751906086
aF9.10661751906086
aF9.10661751906086
aF9.10661751906086
aF9.10661751906086
aF9.10661751906086
aF9.10661751906086
aF9.10661751906086
aF9.10661751906086
aF9.10661751906086
aF9.10661751906086
aF9.10661751906086
aF9.10661751906086
aF9.10661751906086
aF9.10661751906086
aF9.10661751906086
aF9.10661751906086
aF9.10661751906086
aF9.10661751906086
aF9.10661751906086
aF9.10661751906086
aF9.10661751906086
aF9.10661751906086
aF9.10661751906086
aF9.10661751906086
aF9.10661751906086
aF9.10661751906086
aF9.10661751906086
aF9.10661751906086
aF9.10661751906086
aF9.10661751906086
aF9.10661751906086
aF9.10661751906086
aF9.10661751906086
aF9.10661751906086
aF9.10661751906086
aF9.10661751906086
aF9.10661751906086
aF9.10661751906086
aF9.10661751906086
aF9.10661751906086
aF9.10661751906086
aF9.10661751906086
aF9.10661751906086
aF9.10661751906086
aF9.10661751906086
aF9.10661751906086
aF9.10661751906086
aF9.10661751906086
aF9.10661751906086
aF9.10661751906086
aF9.10661751906086
aF9.10661751906086
aF9.10661751906086
aF9.10661751906086
aF9.10661751906086
aF9.10661751906086
aF9.10661751906086
aF9.10661751906086
aF9.10661751906086
aF9.10661751906086
aF9.10661751906086
aF9.10661751906086
aF9.10661751906086
aF9.10661751906086
aF9.10661751906086
aF9.10661751906086
aF9.10661751906086
aF9.10661751906086
aF9.10661751906086
aF9.10661751906086
aF9.10661751906086
aF9.10661751906086
aF9.10661751906086
aF9.10661751906086
aF9.10661751906086
aF9.10661751906086
aF9.10661751906086
aF9.10661751906086
aF9.10661751906086
aF9.10661751906086
aF9.10661751906086
aF9.10661751906086
aF9.10661751906086
aF9.10661751906086
aF9.10661751906086
aF9.10661751906086
aF9.10661751906086
aF9.10661751906086
aF9.10661751906086
aF9.10661751906086
aF9.10661751906086
aF9.10661751906086
aF9.10661751906086
aF9.10661751906086
aF9.10661751906086
aF9.10661751906086
aF9.10661751906086
aF9.10661751906086
aF9.10661751906086
aF9.10661751906086
aF9.10661751906086
aF9.10661751906086
aF9.10661751906086
aF9.10661751906086
aF9.10661751906086
aF9.10661751906086
aF9.10661751906086
aF9.10661751906086
aF9.10661751906086
aF9.10661751906086
aF9.10661751906086
aF9.10661751906086
aF9.10661751906086
aF9.10661751906086
aF9.10661751906086
aF9.10661751906086
aF9.10661751906086
aF9.10661751906086
aF9.10661751906086
aF9.10661751906086
aF9.10661751906086
aF9.10661751906086
aF9.10661751906086
aF9.10661751906086
aF9.10661751906086
aF9.10661751906086
aF9.10661751906086
aF9.10661751906086
aF9.10661751906086
aF9.10661751906086
aF9.10661751906086
aF9.10661751906086
aF9.10661751906086
aF9.10661751906086
aF9.10661751906086
aF9.10661751906086
aF9.10661751906086
aF9.10661751906086
aF9.10661751906086
aF9.10661751906086
aF9.10661751906086
aF9.10661751906086
aF9.10661751906086
aF9.10661751906086
aF9.10661751906086
aF9.10661751906086
aF9.10661751906086
aF9.10661751906086
aF9.10661751906086
aF9.10661751906086
aF9.10661751906086
aF9.10661751906086
aF9.10661751906086
aF9.10661751906086
aF9.10661751906086
aF9.10661751906086
aF9.10661751906086
aF9.10661751906086
aF9.10661751906086
aF9.10661751906086
aF9.10661751906086
aF9.10661751906086
aF9.10661751906086
aF9.10661751906086
aF9.10661751906086
aF9.10661751906086
aF9.10661751906086
aF9.10661751906086
aF9.10661751906086
aF9.10661751906086
aF9.10661751906086
aF9.10661751906086
aF9.10661751906086
aF9.10661751906086
aF9.10661751906086
aF9.10661751906086
aF9.10661751906086
aF9.10661751906086
aF9.10661751906086
aF9.10661751906086
aF9.10661751906086
aF9.10661751906086
aF9.10661751906086
aF9.10661751906086
aF9.10661751906086
aF9.10661751906086
aF9.10661751906086
aF9.10661751906086
aF9.10661751906086
aF9.10661751906086
aF9.10661751906086
aF9.10661751906086
aF9.10661751906086
aF9.10661751906086
aF9.10661751906086
aF9.10661751906086
aF9.10661751906086
aF9.10661751906086
aF9.10661751906086
aF9.10661751906086
aF9.10661751906086
aF9.10661751906086
aF9.10661751906086
aF9.10661751906086
aF9.10661751906086
aF9.10661751906086
aF9.10661751906086
aF9.10661751906086
aF9.10661751906086
aF9.10661751906086
aF9.10661751906086
aF9.10661751906086
aF9.10661751906086
aF9.10661751906086
aF9.10661751906086
aF9.10661751906086
aF9.10661751906086
aF9.10661751906086
aF9.10661751906086
aF9.10661751906086
aF9.10661751906086
aF9.10661751906086
aF9.10661751906086
aF9.10661751906086
aF9.10661751906086
aF9.10661751906086
aF9.10661751906086
aF9.10661751906086
aF9.10661751906086
aF9.10661751906086
aF9.10661751906086
aF9.10661751906086
aF9.10661751906086
aF9.10661751906086
aF9.10661751906086
aF9.10661751906086
aF9.10661751906086
aF9.10661751906086
aF9.10661751906086
aF9.10661751906086
aF9.10661751906086
aF9.10661751906086
aF9.10661751906086
aF9.10661751906086
aF9.10661751906086
aF9.10661751906086
aF9.10661751906086
aF9.10661751906086
aF9.10661751906086
aF9.10661751906086
aF9.10661751906086
aF9.10661751906086
aF9.10661751906086
aF9.10661751906086
aF9.10661751906086
aF9.10661751906086
aF9.10661751906086
aF9.10661751906086
aF9.10661751906086
aF9.10661751906086
aF9.10661751906086
aF9.10661751906086
aF9.10661751906086
aF9.10661751906086
aF9.10661751906086
aF9.10661751906086
aF9.10661751906086
aF9.10661751906086
aF9.10661751906086
aF9.10661751906086
aF9.10661751906086
aF9.10661751906086
aF9.10661751906086
aF9.10661751906086
aF9.10661751906086
aF9.10661751906086
aF9.10661751906086
aF9.10661751906086
aF9.10661751906086
aF9.10661751906086
aF9.10661751906086
aF9.10661751906086
aF9.10661751906086
aF9.10661751906086
aF9.10661751906086
aF9.10661751906086
aF9.10661751906086
aF9.10661751906086
aF9.10661751906086
aF9.10661751906086
aF9.10661751906086
aF9.10661751906086
aF9.10661751906086
aF9.10661751906086
aF9.10661751906086
aF9.10661751906086
aF9.10661751906086
aF9.10661751906086
aF9.10661751906086
aF9.10661751906086
aF9.10661751906086
aF9.10661751906086
aF9.10661751906086
aF9.10661751906086
aF9.10661751906086
aF9.10661751906086
aF9.10661751906086
aF9.10661751906086
aF9.10661751906086
aF9.10661751906086
aF9.10661751906086
aF9.10661751906086
aF9.10661751906086
aF9.10661751906086
aF9.10661751906086
aF9.10661751906086
aF9.10661751906086
aF9.10661751906086
aF9.10661751906086
aF9.10661751906086
aF9.10661751906086
aF9.10661751906086
aF9.10661751906086
aF9.10661751906086
aF9.10661751906086
aF9.10661751906086
aF9.10661751906086
aF9.10661751906086
aF9.10661751906086
aF9.10661751906086
aF9.10661751906086
aF9.10661751906086
aF9.10661751906086
aF9.10661751906086
aF9.10661751906086
aF9.10661751906086
aF9.10661751906086
aF9.10661751906086
aF9.10661751906086
aF9.10661751906086
aF9.10661751906086
aF9.10661751906086
aF9.10661751906086
aF9.10661751906086
aF9.10661751906086
aF9.10661751906086
aF9.10661751906086
aF9.10661751906086
aF9.10661751906086
aF9.10661751906086
aF9.10661751906086
aF9.10661751906086
aF9.10661751906086
aF9.10661751906086
aF9.10661751906086
aF9.10661751906086
aF9.10661751906086
aF9.10661751906086
aF9.10661751906086
aF9.10661751906086
aF9.10661751906086
aF9.10661751906086
aF9.10661751906086
aF9.10661751906086
aF9.10661751906086
aF9.10661751906086
aF9.10661751906086
aF9.10661751906086
aF9.10661751906086
aF9.10661751906086
aF9.10661751906086
aF9.10661751906086
aF9.10661751906086
aF9.10661751906086
aF9.10661751906086
aF9.10661751906086
aF9.10661751906086
aF9.10661751906086
aF9.10661751906086
aF9.10661751906086
aF9.10661751906086
aF9.10661751906086
aF9.10661751906086
aF9.10661751906086
aF9.10661751906086
aF9.10661751906086
aF9.10661751906086
aF9.10661751906086
aF9.10661751906086
aF9.10661751906086
aF9.10661751906086
aF9.10661751906086
aF9.10661751906086
aF9.10661751906086
aF9.10661751906086
aF9.10661751906086
aF9.10661751906086
aF9.10661751906086
aF9.10661751906086
aF9.10661751906086
aF9.10661751906086
aF9.10661751906086
aF9.10661751906086
aF9.10661751906086
aF9.10661751906086
aF9.10661751906086
aF9.10661751906086
aF9.10661751906086
aF9.10661751906086
aF9.10661751906086
aF9.10661751906086
aF9.10661751906086
aF9.10661751906086
aF9.10661751906086
aF9.10661751906086
aF9.10661751906086
aF9.10661751906086
aF9.10661751906086
aF9.10661751906086
aF9.10661751906086
aF9.10661751906086
aF9.10661751906086
aF9.10661751906086
aF9.10661751906086
aF9.10661751906086
aF9.10661751906086
aF9.10661751906086
aF9.10661751906086
aF9.10661751906086
aF9.10661751906086
aF9.10661751906086
aF9.10661751906086
aF9.10661751906086
aF9.10661751906086
aF9.10661751906086
aF9.10661751906086
aF9.10661751906086
aF9.10661751906086
aF9.10661751906086
aF9.10661751906086
aF9.10661751906086
aF9.10661751906086
aF9.10661751906086
aF9.10661751906086
aF9.10661751906086
aF9.10661751906086
aF9.10661751906086
aF9.10661751906086
aF9.10661751906086
aF9.10661751906086
aF9.10661751906086
aF9.10661751906086
aF9.10661751906086
aF9.10661751906086
aF9.10661751906086
aF9.10661751906086
aF9.10661751906086
aF9.10661751906086
aF9.10661751906086
aF9.10661751906086
aF9.10661751906086
aF9.10661751906086
aF9.10661751906086
aF9.10661751906086
aF9.10661751906086
aF9.10661751906086
aF9.10661751906086
aF9.10661751906086
aF9.10661751906086
aF9.10661751906086
aF9.10661751906086
aF9.10661751906086
aF9.10661751906086
aF9.10661751906086
aF9.10661751906086
aF9.10661751906086
aF9.10661751906086
aF9.10661751906086
aF9.10661751906086
aF9.10661751906086
aF9.10661751906086
aF9.10661751906086
aF9.10661751906086
aF9.10661751906086
aF9.10661751906086
aF9.10661751906086
aF9.10661751906086
aF9.10661751906086
aF9.10661751906086
aF9.10661751906086
aF9.10661751906086
aF9.10661751906086
aF9.10661751906086
aF9.10661751906086
aF9.10661751906086
aF9.10661751906086
aF9.10661751906086
aF9.10661751906086
aF9.10661751906086
aF9.10661751906086
aF9.10661751906086
aF9.10661751906086
aF9.10661751906086
aF9.10661751906086
aF9.10661751906086
aF9.10661751906086
aF9.10661751906086
aF9.10661751906086
aF9.10661751906086
aF9.10661751906086
aF9.10661751906086
aF9.10661751906086
aF9.10661751906086
aF9.10661751906086
aF9.10661751906086
aF9.10661751906086
aF9.10661751906086
aF9.10661751906086
aF9.10661751906086
aF9.10661751906086
aF9.10661751906086
aF9.10661751906086
aF9.10661751906086
aF9.10661751906086
aF9.10661751906086
aF9.10661751906086
aF9.10661751906086
aF9.10661751906086
aF9.10661751906086
aF9.10661751906086
aF9.10661751906086
aF9.10661751906086
aF9.10661751906086
aF9.10661751906086
aF9.10661751906086
aF9.10661751906086
aF9.10661751906086
aF9.10661751906086
aF9.10661751906086
aF9.10661751906086
aF9.10661751906086
aF9.10661751906086
aF9.10661751906086
aF9.10661751906086
aF9.10661751906086
aF9.10661751906086
aF9.10661751906086
aF9.10661751906086
aF9.10661751906086
aF9.10661751906086
aF9.10661751906086
aF9.10661751906086
aF9.10661751906086
aF9.10661751906086
aF9.10661751906086
aF9.10661751906086
aF9.10661751906086
aF9.10661751906086
aF9.10661751906086
aF9.10661751906086
aF9.10661751906086
aF9.10661751906086
aF9.10661751906086
aF9.10661751906086
aF9.10661751906086
aF9.10661751906086
aF9.10661751906086
aF9.10661751906086
aF9.10661751906086
aF9.10661751906086
aF9.10661751906086
aF9.10661751906086
aF9.10661751906086
aF9.10661751906086
aF9.10661751906086
aF9.10661751906086
aF9.10661751906086
aF9.10661751906086
aF9.10661751906086
aF9.10661751906086
aF9.10661751906086
aF9.10661751906086
aF9.10661751906086
aF9.10661751906086
aF9.10661751906086
aF9.10661751906086
aF9.10661751906086
aF9.10661751906086
aF9.10661751906086
aF9.10661751906086
aF9.10661751906086
aF9.10661751906086
aF9.10661751906086
aF9.10661751906086
aF9.10661751906086
aF9.10661751906086
aF9.10661751906086
aF9.10661751906086
aF9.10661751906086
aF9.10661751906086
aF9.10661751906086
aF9.10661751906086
aF9.10661751906086
aF9.10661751906086
aF9.10661751906086
aF9.10661751906086
aF9.10661751906086
aF9.10661751906086
aF9.10661751906086
aF9.10661751906086
aF9.10661751906086
aF9.10661751906086
aF9.10661751906086
aF9.10661751906086
aF9.10661751906086
aF9.10661751906086
aF9.10661751906086
aF9.10661751906086
aF9.10661751906086
aF9.10661751906086
aF9.10661751906086
aF9.10661751906086
aF9.10661751906086
aF9.10661751906086
aF9.10661751906086
aF9.10661751906086
aF9.10661751906086
aF9.10661751906086
aF9.10661751906086
aF9.10661751906086
aF9.10661751906086
aF9.10661751906086
aF9.10661751906086
aF9.10661751906086
aF9.10661751906086
aF9.10661751906086
aF9.10661751906086
aF9.10661751906086
aF9.10661751906086
aF9.10661751906086
aF9.10661751906086
aF9.10661751906086
aF9.10661751906086
aF9.10661751906086
aF9.10661751906086
aF9.10661751906086
aF9.10661751906086
aF9.10661751906086
aF9.10661751906086
aF9.10661751906086
aF9.10661751906086
aF9.10661751906086
aF9.10661751906086
aF9.10661751906086
aF9.10661751906086
aF9.10661751906086
aF9.10661751906086
aF9.10661751906086
aF9.10661751906086
aF9.10661751906086
aF9.10661751906086
aF9.10661751906086
aF9.10661751906086
aF9.10661751906086
aF9.10661751906086
aF9.10661751906086
aF9.10661751906086
aF9.10661751906086
aF9.10661751906086
aF9.10661751906086
aF9.10661751906086
aF9.10661751906086
aF9.10661751906086
aF9.10661751906086
aF9.10661751906086
aF9.10661751906086
aF9.10661751906086
aF9.10661751906086
aF9.10661751906086
aF9.10661751906086
aF9.10661751906086
aF9.10661751906086
aF9.10661751906086
aF9.10661751906086
aF9.10661751906086
aF9.10661751906086
aF9.10661751906086
aF9.10661751906086
aF9.10661751906086
aF9.10661751906086
aF9.10661751906086
aF9.10661751906086
aF9.10661751906086
aF9.10661751906086
aF9.10661751906086
aF9.10661751906086
aF9.10661751906086
aF9.10661751906086
aF9.10661751906086
aF9.10661751906086
aF9.10661751906086
aF9.10661751906086
aF9.10661751906086
aF9.10661751906086
aF9.10661751906086
aF9.10661751906086
aF9.10661751906086
aF9.10661751906086
aF9.10661751906086
aF9.10661751906086
aF9.10661751906086
aF9.10661751906086
aF9.10661751906086
aF9.10661751906086
aF9.10661751906086
aF9.10661751906086
aF9.10661751906086
aF9.10661751906086
aF9.10661751906086
aF9.10661751906086
aF9.10661751906086
aF9.10661751906086
aF9.10661751906086
aF9.10661751906086
aF9.10661751906086
aF9.10661751906086
aF9.10661751906086
aF9.10661751906086
aF9.10661751906086
aF9.10661751906086
aF9.10661751906086
aF9.10661751906086
aF9.10661751906086
aF9.10661751906086
aF9.10661751906086
aF9.10661751906086
aF9.10661751906086
aF9.10661751906086
aF9.10661751906086
aF9.10661751906086
aF9.10661751906086
aF9.10661751906086
aF9.10661751906086
aF9.10661751906086
aF9.10661751906086
aF9.10661751906086
aF9.10661751906086
aF9.10661751906086
aF9.10661751906086
aF9.10661751906086
aF9.10661751906086
aF9.10661751906086
aF9.10661751906086
aF9.10661751906086
aF9.10661751906086
aF9.10661751906086
aF9.10661751906086
aF9.10661751906086
aF9.10661751906086
aF9.10661751906086
aF9.10661751906086
aF9.10661751906086
aF9.10661751906086
aF9.10661751906086
aF9.10661751906086
aF9.10661751906086
aF9.10661751906086
aF9.10661751906086
aF9.10661751906086
aF9.10661751906086
aF9.10661751906086
aF9.10661751906086
aF9.10661751906086
aF9.10661751906086
aF9.10661751906086
aF9.10661751906086
aF9.10661751906086
aF9.10661751906086
aF9.10661751906086
aF9.10661751906086
aF9.10661751906086
aF9.10661751906086
aF9.10661751906086
aF9.10661751906086
aF9.10661751906086
aF9.10661751906086
aF9.10661751906086
aF9.10661751906086
aF9.10661751906086
aF9.10661751906086
aF9.10661751906086
aF9.10661751906086
aF9.10661751906086
aF9.10661751906086
aF9.10661751906086
aF9.10661751906086
aF9.10661751906086
aF9.10661751906086
aF9.10661751906086
aF9.10661751906086
aF9.10661751906086
aF9.10661751906086
aF9.10661751906086
aF9.10661751906086
aF9.10661751906086
aF9.10661751906086
aF9.10661751906086
aF9.10661751906086
aF9.10661751906086
aF9.10661751906086
aF9.10661751906086
aF9.10661751906086
aF9.10661751906086
aF9.10661751906086
aF9.10661751906086
aF9.10661751906086
aF9.10661751906086
aF9.10661751906086
aF9.10661751906086
aF9.10661751906086
aF9.10661751906086
aF9.10661751906086
aF9.10661751906086
aF9.10661751906086
aF9.10661751906086
aF9.10661751906086
aF9.10661751906086
aF9.10661751906086
aF9.10661751906086
aF9.10661751906086
aF9.10661751906086
aF9.10661751906086
aF9.10661751906086
aF9.10661751906086
aF9.10661751906086
aF9.10661751906086
aF9.10661751906086
aF9.10661751906086
aF9.10661751906086
aF9.10661751906086
aF9.10661751906086
aF9.10661751906086
aF9.10661751906086
aF9.10661751906086
aF9.10661751906086
aF9.10661751906086
aF9.10661751906086
aF9.10661751906086
aF9.10661751906086
aF9.10661751906086
aF9.10661751906086
aF9.10661751906086
aF9.10661751906086
aF9.10661751906086
aF9.10661751906086
aF9.10661751906086
aF9.10661751906086
aF9.10661751906086
aF9.10661751906086
aF9.10661751906086
aF9.10661751906086
aF9.10661751906086
aF9.10661751906086
aF9.10661751906086
aF9.10661751906086
aF9.10661751906086
aF9.10661751906086
aF9.10661751906086
aF9.10661751906086
aF9.10661751906086
aF9.10661751906086
aF9.10661751906086
aF9.10661751906086
aF9.10661751906086
aF9.10661751906086
aF9.10661751906086
aF9.10661751906086
aF9.10661751906086
aF9.10661751906086
aF9.10661751906086
aF9.10661751906086
aF9.10661751906086
aF9.10661751906086
aF9.10661751906086
aF9.10661751906086
aF9.10661751906086
aF9.10661751906086
aF9.10661751906086
aF9.10661751906086
aF9.10661751906086
aF9.10661751906086
aF9.10661751906086
aF9.10661751906086
aF9.10661751906086
aF9.10661751906086
aF9.10661751906086
aF9.10661751906086
aF9.10661751906086
aF9.10661751906086
aF9.10661751906086
aF9.10661751906086
aF9.10661751906086
aF9.10661751906086
aF9.10661751906086
aF9.10661751906086
aF9.10661751906086
aF9.10661751906086
aF9.10661751906086
aF9.10661751906086
aF9.10661751906086
aF9.10661751906086
aF9.10661751906086
aF9.10661751906086
aF9.10661751906086
aF9.10661751906086
aF9.10661751906086
aF9.10661751906086
aF9.10661751906086
aF9.10661751906086
aF9.10661751906086
aF9.10661751906086
aF9.10661751906086
aF9.10661751906086
aF9.10661751906086
aF9.10661751906086
aF9.10661751906086
aF9.10661751906086
aF9.10661751906086
aF9.10661751906086
aF9.10661751906086
aF9.10661751906086
aF9.10661751906086
aF9.10661751906086
aF9.10661751906086
aF9.10661751906086
aF9.10661751906086
aF9.10661751906086
aF9.10661751906086
aF9.10661751906086
aF9.10661751906086
aF9.10661751906086
aF9.10661751906086
aF9.10661751906086
aF9.10661751906086
aF9.10661751906086
aF9.10661751906086
aF9.10661751906086
aF9.10661751906086
aF9.10661751906086
aF9.10661751906086
aF9.10661751906086
aF9.10661751906086
aF9.10661751906086
aF9.10661751906086
aF9.10661751906086
aF9.10661751906086
aF9.10661751906086
aF9.10661751906086
aF9.10661751906086
aF9.10661751906086
aF9.10661751906086
aF9.10661751906086
aF9.10661751906086
aF9.10661751906086
aF9.10661751906086
aF9.10661751906086
aF9.10661751906086
aF9.10661751906086
aF9.10661751906086
aF9.10661751906086
aF9.10661751906086
aF9.10661751906086
aF9.10661751906086
aF9.10661751906086
aF9.10661751906086
aF9.10661751906086
aF9.10661751906086
aF9.10661751906086
aF9.10661751906086
aF9.10661751906086
aF9.10661751906086
aF9.10661751906086
aF9.10661751906086
aF9.10661751906086
aF9.10661751906086
aF9.10661751906086
aF9.10661751906086
aF9.10661751906086
aF9.10661751906086
aF9.10661751906086
aF9.10661751906086
aF9.10661751906086
aF9.10661751906086
aF9.10661751906086
aF9.10661751906086
aF9.10661751906086
aF9.10661751906086
aF9.10661751906086
aF9.10661751906086
aF9.10661751906086
aF9.10661751906086
aF9.10661751906086
aF9.10661751906086
aF9.10661751906086
aF9.10661751906086
aF9.10661751906086
aF9.10661751906086
aF9.10661751906086
aF9.10661751906086
aF9.10661751906086
aF9.10661751906086
aF9.10661751906086
aF9.10661751906086
aF9.10661751906086
aF9.10661751906086
aF9.10661751906086
aF9.10661751906086
aF9.10661751906086
aF9.10661751906086
aF9.10661751906086
aF9.10661751906086
aF9.10661751906086
aF9.10661751906086
aF9.10661751906086
aF9.10661751906086
aF9.10661751906086
aF9.10661751906086
aF9.10661751906086
aF9.10661751906086
aF9.10661751906086
aF9.10661751906086
aF9.10661751906086
aF9.10661751906086
aF9.10661751906086
aF9.10661751906086
aF9.10661751906086
aF9.10661751906086
aF9.10661751906086
aF9.10661751906086
aF9.10661751906086
aF9.10661751906086
aF9.10661751906086
aF9.10661751906086
aF9.10661751906086
aF9.10661751906086
aF9.10661751906086
aF9.10661751906086
aF9.10661751906086
aF9.10661751906086
aF9.10661751906086
aF9.10661751906086
aF9.10661751906086
aF9.10661751906086
aF9.10661751906086
aF9.10661751906086
aF9.10661751906086
aF9.10661751906086
aF9.10661751906086
aF9.10661751906086
aF9.10661751906086
aF9.10661751906086
aF9.10661751906086
aF9.10661751906086
aF9.10661751906086
aF9.10661751906086
aF9.10661751906086
aF9.10661751906086
aF9.10661751906086
aF9.10661751906086
aF9.10661751906086
aF9.10661751906086
aF9.10661751906086
aF9.10661751906086
aF9.10661751906086
aF9.10661751906086
aF9.10661751906086
aF9.10661751906086
aF9.10661751906086
aF9.10661751906086
aF9.10661751906086
aF9.10661751906086
aF9.10661751906086
aF9.10661751906086
aF9.10661751906086
aF9.10661751906086
aF9.10661751906086
aF9.10661751906086
aF9.10661751906086
aF9.10661751906086
aF9.10661751906086
aF9.10661751906086
aF9.10661751906086
aF9.10661751906086
aF9.10661751906086
aF9.10661751906086
aF9.10661751906086
aF9.10661751906086
aF9.10661751906086
aF9.10661751906086
aF9.10661751906086
aF9.10661751906086
aF9.10661751906086
aF9.10661751906086
aF9.10661751906086
aF9.10661751906086
aF9.10661751906086
aF9.10661751906086
aF9.10661751906086
aF9.10661751906086
aF9.10661751906086
aF9.10661751906086
aF9.10661751906086
aF9.10661751906086
aF9.10661751906086
aF9.10661751906086
aF9.10661751906086
aF9.10661751906086
aF9.10661751906086
aF9.10661751906086
aF9.10661751906086
aF9.10661751906086
aF9.10661751906086
aF9.10661751906086
aF9.10661751906086
aF9.10661751906086
aF9.10661751906086
aF9.10661751906086
aF9.10661751906086
aF9.10661751906086
aF9.10661751906086
aF9.10661751906086
aF9.10661751906086
aF9.10661751906086
aF9.10661751906086
aF9.10661751906086
aF9.10661751906086
aF9.10661751906086
aF9.10661751906086
aF9.10661751906086
aF9.10661751906086
aF9.10661751906086
aF9.10661751906086
aF9.10661751906086
aF9.10661751906086
aF9.10661751906086
aF9.10661751906086
aF9.10661751906086
aF9.10661751906086
aF9.10661751906086
aF9.10661751906086
aF9.10661751906086
aF9.10661751906086
aF9.10661751906086
aF9.10661751906086
aF9.10661751906086
aF9.10661751906086
aF9.10661751906086
aF9.10661751906086
aF9.10661751906086
aF9.10661751906086
aF9.10661751906086
aF9.10661751906086
aF9.10661751906086
aF9.10661751906086
aF9.10661751906086
aF9.10661751906086
aF9.10661751906086
aF9.10661751906086
aF9.10661751906086
aF9.10661751906086
aF9.10661751906086
aF9.10661751906086
aF9.10661751906086
aF9.10661751906086
aF9.10661751906086
aF9.10661751906086
aF9.10661751906086
aF9.10661751906086
aF9.10661751906086
aF9.10661751906086
aF9.10661751906086
aF9.10661751906086
aF9.10661751906086
aF9.10661751906086
aF9.10661751906086
aF9.10661751906086
aF9.10661751906086
aF9.10661751906086
aF9.10661751906086
aF9.10661751906086
aF9.10661751906086
aF9.10661751906086
aF9.10661751906086
aF9.10661751906086
aF9.10661751906086
aF9.10661751906086
aF9.10661751906086
aF9.10661751906086
aF9.10661751906086
aF9.10661751906086
aF9.10661751906086
aF9.10661751906086
aF9.10661751906086
aF9.10661751906086
aF9.10661751906086
aF9.10661751906086
aF9.10661751906086
aF9.10661751906086
aF9.10661751906086
aF9.10661751906086
aF9.10661751906086
aF9.10661751906086
aF9.10661751906086
aF9.10661751906086
aF9.10661751906086
aF9.10661751906086
aF9.10661751906086
aF9.10661751906086
aF9.10661751906086
aF9.10661751906086
aF9.10661751906086
aF9.10661751906086
aF9.10661751906086
aF9.10661751906086
aF9.10661751906086
aF9.10661751906086
aF9.10661751906086
aF9.10661751906086
aF9.10661751906086
aF9.10661751906086
aF9.10661751906086
aF9.10661751906086
aF9.10661751906086
aF9.10661751906086
aF9.10661751906086
aF9.10661751906086
aF9.10661751906086
aF9.10661751906086
aF9.10661751906086
aF9.10661751906086
aF9.10661751906086
aF9.10661751906086
aF9.10661751906086
aF9.10661751906086
aF9.10661751906086
aF9.10661751906086
aF9.10661751906086
aF9.10661751906086
aF9.10661751906086
aF9.10661751906086
aF9.10661751906086
aF9.10661751906086
aF9.10661751906086
aF9.10661751906086
aF9.10661751906086
aF9.10661751906086
aF9.10661751906086
aF9.10661751906086
aF9.10661751906086
aF9.10661751906086
aF9.10661751906086
aF9.10661751906086
aF9.10661751906086
aF9.10661751906086
aF9.10661751906086
aF9.10661751906086
aF9.10661751906086
aF9.10661751906086
aF9.10661751906086
aF9.10661751906086
aF9.10661751906086
aF9.10661751906086
aF9.10661751906086
aF9.10661751906086
aF9.10661751906086
aF9.10661751906086
aF9.10661751906086
aF9.10661751906086
aF9.10661751906086
aF9.10661751906086
aF9.10661751906086
aF9.10661751906086
aF9.10661751906086
aF9.10661751906086
aF9.10661751906086
aF9.10661751906086
aF9.10661751906086
aF9.10661751906086
aF9.10661751906086
aF9.10661751906086
aF9.10661751906086
aF9.10661751906086
aF9.10661751906086
aF9.10661751906086
aF9.10661751906086
aF9.10661751906086
aF9.10661751906086
aF9.10661751906086
aF9.10661751906086
aF9.10661751906086
aF9.10661751906086
aF9.10661751906086
aF9.10661751906086
aF9.10661751906086
aF9.10661751906086
aF9.10661751906086
aF9.10661751906086
aF9.10661751906086
aF9.10661751906086
aF9.10661751906086
aF9.10661751906086
aF9.10661751906086
aF9.10661751906086
aF9.10661751906086
aF9.10661751906086
aF9.10661751906086
aF9.10661751906086
aF9.10661751906086
aF9.10661751906086
aF9.10661751906086
aF9.10661751906086
aF9.10661751906086
aF9.10661751906086
aF9.10661751906086
aF9.10661751906086
aF9.10661751906086
aF9.10661751906086
aF9.10661751906086
aF9.10661751906086
aF9.10661751906086
aF9.10661751906086
aF9.10661751906086
aF9.10661751906086
aF9.10661751906086
aF9.10661751906086
aF9.10661751906086
aF9.10661751906086
aF9.10661751906086
aF9.10661751906086
aF9.10661751906086
aF9.10661751906086
aF9.10661751906086
aF9.10661751906086
aF9.10661751906086
aF9.10661751906086
aF9.10661751906086
aF9.10661751906086
aF9.10661751906086
aF9.10661751906086
aF9.10661751906086
aF9.10661751906086
aF9.10661751906086
aF9.10661751906086
aF9.10661751906086
aF9.10661751906086
aF9.10661751906086
aF9.10661751906086
aF9.10661751906086
aF9.10661751906086
aF9.10661751906086
aF9.10661751906086
aF9.10661751906086
aF9.10661751906086
aF9.10661751906086
aF9.10661751906086
aF9.10661751906086
aF9.10661751906086
aF9.10661751906086
aF9.10661751906086
aF9.10661751906086
aF9.10661751906086
aF9.10661751906086
aF9.10661751906086
aF9.10661751906086
aF9.10661751906086
aF9.10661751906086
aF9.10661751906086
aF9.10661751906086
aF9.10661751906086
aF9.10661751906086
aF9.10661751906086
aF9.10661751906086
aF9.10661751906086
aF9.10661751906086
aF9.10661751906086
aF9.10661751906086
aF9.10661751906086
aF9.10661751906086
aF9.10661751906086
aF9.10661751906086
aF9.10661751906086
aF9.10661751906086
aF9.10661751906086
aF9.10661751906086
aF9.10661751906086
aF9.10661751906086
aF9.10661751906086
aF9.10661751906086
aF9.10661751906086
aF9.10661751906086
aF9.10661751906086
aF9.10661751906086
aF9.10661751906086
aF9.10661751906086
aF9.10661751906086
aF9.10661751906086
aF9.10661751906086
aF9.10661751906086
aF9.10661751906086
aF9.10661751906086
aF9.10661751906086
aF9.10661751906086
aF9.10661751906086
aF9.10661751906086
aF9.10661751906086
aF9.10661751906086
aF9.10661751906086
aF9.10661751906086
aF9.10661751906086
aF9.10661751906086
aF9.10661751906086
aF9.10661751906086
aF9.10661751906086
aF9.10661751906086
aF9.10661751906086
aF9.10661751906086
aF9.10661751906086
aF9.10661751906086
aF9.10661751906086
aF9.10661751906086
aF9.10661751906086
aF9.10661751906086
aF9.10661751906086
aF9.10661751906086
aF9.10661751906086
aF9.10661751906086
aF9.10661751906086
aF9.10661751906086
aF9.10661751906086
aF9.10661751906086
aF9.10661751906086
aF9.10661751906086
aF9.10661751906086
aF9.10661751906086
aF9.10661751906086
aF9.10661751906086
aF9.10661751906086
aF9.10661751906086
aF9.10661751906086
aF9.10661751906086
aF9.10661751906086
aF9.10661751906086
aF9.10661751906086
aF9.10661751906086
aF9.10661751906086
aF9.10661751906086
aF9.10661751906086
aF9.10661751906086
aF9.10661751906086
aF9.10661751906086
aF9.10661751906086
aF9.10661751906086
aF9.10661751906086
aF9.10661751906086
aF9.10661751906086
aF9.10661751906086
aF9.10661751906086
aF9.10661751906086
aF9.10661751906086
aF9.10661751906086
aF9.10661751906086
aF9.10661751906086
aF9.10661751906086
aF9.10661751906086
aF9.10661751906086
aF9.10661751906086
aF9.10661751906086
aF9.10661751906086
aF9.10661751906086
aF9.10661751906086
aF9.10661751906086
aF9.10661751906086
aF9.10661751906086
aF9.10661751906086
aF9.10661751906086
aF9.10661751906086
aF9.10661751906086
aF9.10661751906086
aF9.10661751906086
aF9.10661751906086
aF9.10661751906086
aF9.10661751906086
aF9.10661751906086
aF9.10661751906086
aF9.10661751906086
aF9.10661751906086
aF9.10661751906086
aF9.10661751906086
aF9.10661751906086
aF9.10661751906086
aF9.10661751906086
aF9.10661751906086
aF9.10661751906086
aF9.10661751906086
aF9.10661751906086
aF9.10661751906086
aF9.10661751906086
aF9.10661751906086
aF9.10661751906086
aF9.10661751906086
aF9.10661751906086
aF9.10661751906086
aF9.10661751906086
aF9.10661751906086
aF9.10661751906086
aF9.10661751906086
aF9.10661751906086
aF9.10661751906086
aF9.10661751906086
aF9.10661751906086
aF9.10661751906086
aF9.10661751906086
aF9.10661751906086
aF9.10661751906086
aF9.10661751906086
aF9.10661751906086
aF9.10661751906086
aF9.10661751906086
aF9.10661751906086
aF9.10661751906086
aF9.10661751906086
aF9.10661751906086
aF9.10661751906086
aF9.10661751906086
aF9.10661751906086
aF9.10661751906086
aF9.10661751906086
aF9.10661751906086
aF9.10661751906086
aF9.10661751906086
aF9.10661751906086
aF9.10661751906086
aF9.10661751906086
aF9.10661751906086
aF9.10661751906086
aF9.10661751906086
aF9.10661751906086
aF9.10661751906086
aF9.10661751906086
aF9.10661751906086
aF9.10661751906086
aF9.10661751906086
aF9.10661751906086
aF9.10661751906086
aF9.10661751906086
aF9.10661751906086
aF9.10661751906086
aF9.10661751906086
aF9.10661751906086
aF9.10661751906086
aF9.10661751906086
aF9.10661751906086
aF9.10661751906086
aF9.10661751906086
aF9.10661751906086
aF9.10661751906086
aF9.10661751906086
aF9.10661751906086
aF9.10661751906086
aF9.10661751906086
aF9.10661751906086
aF9.10661751906086
aF9.10661751906086
aF9.10661751906086
aF9.10661751906086
aF9.10661751906086
aF9.10661751906086
aF9.10661751906086
aF9.10661751906086
aF9.10661751906086
aF9.10661751906086
aF9.10661751906086
aF9.10661751906086
aF9.10661751906086
aF9.10661751906086
aF9.10661751906086
aF9.10661751906086
aF9.10661751906086
aF9.10661751906086
aF9.10661751906086
aF9.10661751906086
aF9.10661751906086
aF9.10661751906086
aF9.10661751906086
aF9.10661751906086
aF9.10661751906086
aF9.10661751906086
aF9.10661751906086
aF9.10661751906086
aF9.10661751906086
aF9.10661751906086
aF9.10661751906086
aF9.10661751906086
aF9.10661751906086
aF9.10661751906086
aF9.10661751906086
aF9.10661751906086
aF9.10661751906086
aF9.10661751906086
aF9.10661751906086
aF9.10661751906086
aF9.10661751906086
aF9.10661751906086
aF9.10661751906086
aF9.10661751906086
aF9.10661751906086
aF9.10661751906086
aF9.10661751906086
aF9.10661751906086
aF9.10661751906086
aF9.10661751906086
aF9.10661751906086
aF9.10661751906086
aF9.10661751906086
aF9.10661751906086
aF9.10661751906086
aF9.10661751906086
aF9.10661751906086
aF9.10661751906086
aF9.10661751906086
aF9.10661751906086
aF9.10661751906086
aF9.10661751906086
aF9.10661751906086
aF9.10661751906086
aF9.10661751906086
aF9.10661751906086
aF9.10661751906086
aF9.10661751906086
aF9.10661751906086
aF9.10661751906086
aF9.10661751906086
aF9.10661751906086
aF9.10661751906086
aF9.10661751906086
aF9.10661751906086
aF9.10661751906086
aF9.10661751906086
aF9.10661751906086
aF9.10661751906086
aF9.10661751906086
aF9.10661751906086
aF9.10661751906086
aF9.10661751906086
aF9.10661751906086
aF9.10661751906086
aF9.10661751906086
aF9.10661751906086
aF9.10661751906086
aF9.10661751906086
aF9.10661751906086
aF9.10661751906086
aF9.10661751906086
aF9.10661751906086
aF9.10661751906086
aF9.10661751906086
aF9.10661751906086
aF9.10661751906086
aF9.10661751906086
aF9.10661751906086
aF9.10661751906086
aF9.10661751906086
aF9.10661751906086
aF9.10661751906086
aF9.10661751906086
aF9.10661751906086
aF9.10661751906086
aF9.10661751906086
aF9.10661751906086
aF9.10661751906086
aF9.10661751906086
aF9.10661751906086
aF9.10661751906086
aF9.10661751906086
aF9.10661751906086
aF9.10661751906086
aF9.10661751906086
aF9.10661751906086
aF9.10661751906086
aF9.10661751906086
aF9.10661751906086
aF9.10661751906086
aF9.10661751906086
aF9.10661751906086
aF9.10661751906086
aF9.10661751906086
aF9.10661751906086
aF9.10661751906086
aF9.10661751906086
aF9.10661751906086
aF9.10661751906086
aF9.10661751906086
aF9.10661751906086
aF9.10661751906086
aF9.10661751906086
aF9.10661751906086
aF9.10661751906086
aF9.10661751906086
aF9.10661751906086
aF9.10661751906086
aF9.10661751906086
aF9.10661751906086
aF9.10661751906086
aF9.10661751906086
aF9.10661751906086
aF9.10661751906086
aF9.10661751906086
aF9.10661751906086
aF9.10661751906086
aF9.10661751906086
aF9.10661751906086
aF9.10661751906086
aF9.10661751906086
aF9.10661751906086
aF9.10661751906086
aF9.10661751906086
aF9.10661751906086
aF9.10661751906086
aF9.10661751906086
aF9.10661751906086
aF9.10661751906086
aF9.10661751906086
aF9.10661751906086
aF9.10661751906086
aF9.10661751906086
aF9.10661751906086
aF9.10661751906086
aF9.10661751906086
aF9.10661751906086
aF9.10661751906086
aF9.10661751906086
aF9.10661751906086
aF9.10661751906086
aF9.10661751906086
aF9.10661751906086
aF9.10661751906086
aF9.10661751906086
aF9.10661751906086
aF9.10661751906086
aF9.10661751906086
aF9.10661751906086
aF9.10661751906086
aF9.10661751906086
aF9.10661751906086
aF9.10661751906086
aF9.10661751906086
aF9.10661751906086
aF9.10661751906086
aF9.10661751906086
aF9.10661751906086
aF9.10661751906086
aF9.10661751906086
aF9.10661751906086
aF9.10661751906086
aF9.10661751906086
aF9.10661751906086
aF9.10661751906086
aF9.10661751906086
aF9.10661751906086
aF9.10661751906086
aF9.10661751906086
aF9.10661751906086
aF9.10661751906086
aF9.10661751906086
aF9.10661751906086
aF9.10661751906086
aF9.10661751906086
aF9.10661751906086
aF9.10661751906086
aF9.10661751906086
aF9.10661751906086
aF9.10661751906086
aF9.10661751906086
aF9.10661751906086
aF9.10661751906086
aF9.10661751906086
aF9.10661751906086
aF9.10661751906086
aF9.10661751906086
aF9.10661751906086
aF9.10661751906086
aF9.10661751906086
aF9.10661751906086
aF9.10661751906086
aF9.10661751906086
aF9.10661751906086
aF9.10661751906086
aF9.10661751906086
aF9.10661751906086
aF9.10661751906086
aF9.10661751906086
aF9.10661751906086
aF9.10661751906086
aF9.10661751906086
aF9.10661751906086
aF9.10661751906086
aF9.10661751906086
aF9.10661751906086
aF9.10661751906086
aF9.10661751906086
aF9.10661751906086
aF9.10661751906086
aF9.10661751906086
aF9.10661751906086
aF9.10661751906086
aF9.10661751906086
aF9.10661751906086
aF9.10661751906086
aF9.10661751906086
aF9.10661751906086
aF9.10661751906086
aF9.10661751906086
aF9.10661751906086
aF9.10661751906086
aF9.10661751906086
aF9.10661751906086
aF9.10661751906086
aF9.10661751906086
aF9.10661751906086
aF9.10661751906086
aF9.10661751906086
aF9.10661751906086
aF9.10661751906086
aF9.10661751906086
aF9.10661751906086
aF9.10661751906086
aF9.10661751906086
aF9.10661751906086
aF9.10661751906086
aF9.10661751906086
aF9.10661751906086
aF9.10661751906086
aF9.10661751906086
aF9.10661751906086
aF9.10661751906086
aF9.10661751906086
aF9.10661751906086
aF9.10661751906086
aF9.10661751906086
aF9.10661751906086
aF9.10661751906086
aF9.10661751906086
aF9.10661751906086
aF9.10661751906086
aF9.10661751906086
aF9.10661751906086
aF9.10661751906086
aF9.10661751906086
aF9.10661751906086
aF9.10661751906086
aF9.10661751906086
aF9.10661751906086
aF9.10661751906086
aF9.10661751906086
aF9.10661751906086
aF9.10661751906086
aF9.10661751906086
aF9.10661751906086
aF9.10661751906086
aF9.10661751906086
aF9.10661751906086
aF9.10661751906086
aF9.10661751906086
aF9.10661751906086
aF9.10661751906086
aF9.10661751906086
aF9.10661751906086
aF9.10661751906086
aF9.10661751906086
aF9.10661751906086
aF9.10661751906086
aF9.10661751906086
aF9.10661751906086
aF9.10661751906086
aF9.10661751906086
aF9.10661751906086
aF9.10661751906086
aF9.10661751906086
aF9.10661751906086
aF9.10661751906086
aF9.10661751906086
aF9.10661751906086
aF9.10661751906086
aF9.10661751906086
aF9.10661751906086
aF9.10661751906086
aF9.10661751906086
aF9.10661751906086
aF9.10661751906086
aF9.10661751906086
aF9.10661751906086
aF9.10661751906086
aF9.10661751906086
aF9.10661751906086
aF9.10661751906086
aF9.10661751906086
aF9.10661751906086
aF9.10661751906086
aF9.10661751906086
aF9.10661751906086
aF9.10661751906086
aF9.10661751906086
aF9.10661751906086
aF9.10661751906086
aF9.10661751906086
aF9.10661751906086
aF9.10661751906086
aF9.10661751906086
aF9.10661751906086
aF9.10661751906086
aF9.10661751906086
aF9.10661751906086
aF9.10661751906086
aF9.10661751906086
aF9.10661751906086
aF9.10661751906086
aF9.10661751906086
aF9.10661751906086
aF9.10661751906086
aF9.10661751906086
aF9.10661751906086
aF9.10661751906086
aF9.10661751906086
aF9.10661751906086
aF9.10661751906086
aF9.10661751906086
aF9.10661751906086
aF9.10661751906086
aF9.10661751906086
aF9.10661751906086
aF9.10661751906086
aF9.10661751906086
aF9.10661751906086
aF9.10661751906086
aF9.10661751906086
aF9.10661751906086
aF9.10661751906086
aF9.10661751906086
aF9.10661751906086
aF9.10661751906086
aF9.10661751906086
aF9.10661751906086
aF9.10661751906086
aF9.10661751906086
aF9.10661751906086
aF9.10661751906086
aF9.10661751906086
aF9.10661751906086
aF9.10661751906086
aF9.10661751906086
aF9.10661751906086
aF9.10661751906086
aF9.10661751906086
aF9.10661751906086
aF9.10661751906086
aF9.10661751906086
aF9.10661751906086
aF9.10661751906086
aF9.10661751906086
aF9.10661751906086
aF9.10661751906086
aF9.10661751906086
aF9.10661751906086
aF9.10661751906086
aF9.10661751906086
aF9.10661751906086
aF9.10661751906086
aF9.10661751906086
aF9.10661751906086
aF9.10661751906086
aF9.10661751906086
aF9.10661751906086
aF9.10661751906086
aF9.10661751906086
aF9.10661751906086
aF9.10661751906086
aF9.10661751906086
aF9.10661751906086
aF9.10661751906086
aF9.10661751906086
aF9.10661751906086
aF9.10661751906086
aF9.10661751906086
aF9.10661751906086
aF9.10661751906086
aF9.10661751906086
aF9.10661751906086
aF9.10661751906086
aF9.10661751906086
aF9.10661751906086
aF9.10661751906086
aF9.10661751906086
aF9.10661751906086
aF9.10661751906086
aF9.10661751906086
aF9.10661751906086
aF9.10661751906086
aF9.10661751906086
aF9.10661751906086
aF9.10661751906086
aF9.10661751906086
aF9.10661751906086
aF9.10661751906086
aF9.10661751906086
aF9.10661751906086
aF9.10661751906086
aF9.10661751906086
aF9.10661751906086
aF9.10661751906086
aF9.10661751906086
aF9.10661751906086
aF9.10661751906086
aF9.10661751906086
aF9.10661751906086
aF9.10661751906086
aF9.10661751906086
aF9.10661751906086
aF9.10661751906086
aF9.10661751906086
aF9.10661751906086
aF9.10661751906086
aF9.10661751906086
aF9.10661751906086
aF9.10661751906086
aF9.10661751906086
aF9.10661751906086
aF9.10661751906086
aF9.10661751906086
aF9.10661751906086
aF9.10661751906086
aF9.10661751906086
aF9.10661751906086
aF9.10661751906086
aF9.10661751906086
aF9.10661751906086
aF9.10661751906086
aF9.10661751906086
aF9.10661751906086
aF9.10661751906086
aF9.10661751906086
aF9.10661751906086
aF9.10661751906086
aF9.10661751906086
aF9.10661751906086
aF9.10661751906086
aF9.10661751906086
aF9.10661751906086
aF9.10661751906086
aF9.10661751906086
aF9.10661751906086
aF9.10661751906086
aF9.10661751906086
aF9.10661751906086
aF9.10661751906086
aF9.10661751906086
aF9.10661751906086
aF9.10661751906086
aF9.10661751906086
aF9.10661751906086
aF9.10661751906086
aF9.10661751906086
aF9.10661751906086
aF9.10661751906086
aF9.10661751906086
aF9.10661751906086
aF9.10661751906086
aF9.10661751906086
aF9.10661751906086
aF9.10661751906086
aF9.10661751906086
aF9.10661751906086
aF9.10661751906086
aF9.10661751906086
aF9.10661751906086
aF9.10661751906086
aF9.10661751906086
aF9.10661751906086
aF9.10661751906086
aF9.10661751906086
aF9.10661751906086
aF9.10661751906086
aF9.10661751906086
aF9.10661751906086
aF9.10661751906086
aF9.10661751906086
aF9.10661751906086
aF9.10661751906086
aF9.10661751906086
aF9.10661751906086
aF9.10661751906086
aF9.10661751906086
aF9.10661751906086
aF9.10661751906086
aF9.10661751906086
aF9.10661751906086
aF9.10661751906086
aF9.10661751906086
aF9.10661751906086
aF9.10661751906086
aF9.10661751906086
aF9.10661751906086
aF9.10661751906086
aF9.10661751906086
aF9.10661751906086
aF9.10661751906086
aF9.10661751906086
aF9.10661751906086
aF9.10661751906086
aF9.10661751906086
aF9.10661751906086
aF9.10661751906086
aF9.10661751906086
aF9.10661751906086
aF9.10661751906086
aF9.10661751906086
aF9.10661751906086
aF9.10661751906086
aF9.10661751906086
aF9.10661751906086
aF9.10661751906086
aF9.10661751906086
aF9.10661751906086
aF9.10661751906086
aF9.10661751906086
aF9.10661751906086
aF9.10661751906086
aF9.10661751906086
aF9.10661751906086
aF9.10661751906086
aF9.10661751906086
aF9.10661751906086
aF9.10661751906086
aF9.10661751906086
aF9.10661751906086
aF9.10661751906086
aF9.10661751906086
aF9.10661751906086
aF9.10661751906086
aF9.10661751906086
aF9.10661751906086
aF9.10661751906086
aF9.10661751906086
aF9.10661751906086
aF9.10661751906086
aF9.10661751906086
aF9.10661751906086
aF9.10661751906086
aF9.10661751906086
aF9.10661751906086
aF9.10661751906086
aF9.10661751906086
aF9.10661751906086
aF9.10661751906086
aF9.10661751906086
aF9.10661751906086
aF9.10661751906086
aF9.10661751906086
aF9.10661751906086
aF9.10661751906086
aF9.10661751906086
aF9.10661751906086
aF9.10661751906086
aF9.10661751906086
aF9.10661751906086
aF9.10661751906086
aF9.10661751906086
aF9.10661751906086
aF9.10661751906086
aF9.10661751906086
aF9.10661751906086
aF9.10661751906086
aF9.10661751906086
aF9.10661751906086
aF9.10661751906086
aF9.10661751906086
aF9.10661751906086
aF9.10661751906086
aF9.10661751906086
aF9.10661751906086
aF9.10661751906086
aF9.10661751906086
aF9.10661751906086
aF9.10661751906086
aF9.10661751906086
aF9.10661751906086
aF9.10661751906086
aF9.10661751906086
aF9.10661751906086
aF9.10661751906086
aF9.10661751906086
aF9.10661751906086
aF9.10661751906086
aF9.10661751906086
aF9.10661751906086
aF9.10661751906086
aF9.10661751906086
aF9.10661751906086
aF9.10661751906086
aF9.10661751906086
aF9.10661751906086
aF9.10661751906086
aF9.10661751906086
aF9.10661751906086
aF9.10661751906086
aF9.10661751906086
aF9.10661751906086
aF9.10661751906086
aF9.10661751906086
aF9.10661751906086
aF9.10661751906086
aF9.10661751906086
aF9.10661751906086
aF9.10661751906086
aF9.10661751906086
aF9.10661751906086
aF9.10661751906086
aF9.10661751906086
aF9.10661751906086
aF9.10661751906086
aF9.10661751906086
aF9.10661751906086
aF9.10661751906086
aF9.10661751906086
aF9.10661751906086
aF9.10661751906086
aF9.10661751906086
aF9.10661751906086
aF9.10661751906086
aF9.10661751906086
aF9.10661751906086
aF9.10661751906086
aF9.10661751906086
aF9.10661751906086
aF9.10661751906086
aF9.10661751906086
aF9.10661751906086
aF9.10661751906086
aF9.10661751906086
aF9.10661751906086
aF9.10661751906086
aF9.10661751906086
aF9.10661751906086
aF9.10661751906086
aF9.10661751906086
aF9.10661751906086
aF9.10661751906086
aF9.10661751906086
aF9.10661751906086
aF9.10661751906086
aF9.10661751906086
aF9.10661751906086
aF9.10661751906086
aF9.10661751906086
aF9.10661751906086
aF9.10661751906086
aF9.10661751906086
aF9.10661751906086
aF9.10661751906086
aF9.10661751906086
aF9.10661751906086
aF9.10661751906086
aF9.10661751906086
aF9.10661751906086
aF9.10661751906086
aF9.10661751906086
aF9.10661751906086
aF9.10661751906086
aF9.10661751906086
aF9.10661751906086
aF9.10661751906086
aF9.10661751906086
aF9.10661751906086
aF9.10661751906086
aF9.10661751906086
aF9.10661751906086
aF9.10661751906086
aF9.10661751906086
aF9.10661751906086
aF9.10661751906086
aF9.10661751906086
aF9.10661751906086
aF9.10661751906086
aF9.10661751906086
aF9.10661751906086
aF9.10661751906086
aF9.10661751906086
aF9.10661751906086
aF9.10661751906086
aF9.10661751906086
aF9.10661751906086
aF9.10661751906086
aF9.10661751906086
aF9.10661751906086
aF9.10661751906086
aF9.10661751906086
aF9.10661751906086
aF9.10661751906086
aF9.10661751906086
aF9.10661751906086
aF9.10661751906086
aF9.10661751906086
aF9.10661751906086
aF9.10661751906086
aF9.10661751906086
aF9.10661751906086
aF9.10661751906086
aF9.10661751906086
aF9.10661751906086
aF9.10661751906086
aF9.10661751906086
aF9.10661751906086
aF9.10661751906086
aF9.10661751906086
aF9.10661751906086
aF9.10661751906086
aF9.10661751906086
aF9.10661751906086
aF9.10661751906086
aF9.10661751906086
aF9.10661751906086
aF9.10661751906086
aF9.10661751906086
aF9.10661751906086
aF9.10661751906086
aF9.10661751906086
aF9.10661751906086
aF9.10661751906086
aF9.10661751906086
aF9.10661751906086
aF9.10661751906086
aF9.10661751906086
aF9.10661751906086
aF9.10661751906086
aF9.10661751906086
aF9.10661751906086
aF9.10661751906086
aF9.10661751906086
aF9.10661751906086
aF9.10661751906086
aF9.10661751906086
aF9.10661751906086
aF9.10661751906086
aF9.10661751906086
aF9.10661751906086
aF9.10661751906086
aF9.10661751906086
aF9.10661751906086
aF9.10661751906086
aF9.10661751906086
aF9.10661751906086
aF9.10661751906086
aF9.10661751906086
aF9.10661751906086
aF9.10661751906086
aF9.10661751906086
aF9.10661751906086
aF9.10661751906086
aF9.10661751906086
aF9.10661751906086
aF9.10661751906086
aF9.10661751906086
aF9.10661751906086
aF9.10661751906086
aF9.10661751906086
aF9.10661751906086
aF9.10661751906086
aF9.10661751906086
aF9.10661751906086
aF9.10661751906086
aF9.10661751906086
aF9.10661751906086
aF9.10661751906086
aF9.10661751906086
aF9.10661751906086
aF9.10661751906086
aF9.10661751906086
aF9.10661751906086
aF9.10661751906086
aF9.10661751906086
aF9.10661751906086
aF9.10661751906086
aF9.10661751906086
aF9.10661751906086
aF9.10661751906086
aF9.10661751906086
aF9.10661751906086
aF9.10661751906086
aF9.10661751906086
aF9.10661751906086
aF9.10661751906086
aF9.10661751906086
aF9.10661751906086
aF9.10661751906086
aF9.10661751906086
aF9.10661751906086
aF9.10661751906086
aF9.10661751906086
aF9.10661751906086
aF9.10661751906086
aF9.10661751906086
aF9.10661751906086
aF9.10661751906086
aF9.10661751906086
aF9.10661751906086
aF9.10661751906086
aF9.10661751906086
aF9.10661751906086
aF9.10661751906086
aF9.10661751906086
aF9.10661751906086
aF9.10661751906086
aF9.10661751906086
aF9.10661751906086
aF9.10661751906086
aF9.10661751906086
aF9.10661751906086
aF9.10661751906086
aF9.10661751906086
aF9.10661751906086
aF9.10661751906086
aF9.10661751906086
aF9.10661751906086
aF9.10661751906086
aF9.10661751906086
aF9.10661751906086
aF9.10661751906086
aF9.10661751906086
aF9.10661751906086
aF9.10661751906086
aF9.10661751906086
aF9.10661751906086
aF9.10661751906086
aF9.10661751906086
aF9.10661751906086
aF9.10661751906086
aF9.10661751906086
aF9.10661751906086
aF9.10661751906086
aF9.10661751906086
aF9.10661751906086
aF9.10661751906086
aF9.10661751906086
aF9.10661751906086
aF9.10661751906086
aF9.10661751906086
aF9.10661751906086
aF9.10661751906086
aF9.10661751906086
aF9.10661751906086
aF9.10661751906086
aF9.10661751906086
aF9.10661751906086
aF9.10661751906086
aF9.10661751906086
aF9.10661751906086
aF9.10661751906086
aF9.10661751906086
aF9.10661751906086
aF9.10661751906086
aF9.10661751906086
aF9.10661751906086
aF9.10661751906086
aF9.10661751906086
aF9.10661751906086
aF9.10661751906086
aF9.10661751906086
aF9.10661751906086
aF9.10661751906086
aF9.10661751906086
aF9.10661751906086
aF9.10661751906086
aF9.10661751906086
aF9.10661751906086
aF9.10661751906086
aF9.10661751906086
aF9.10661751906086
aF9.10661751906086
aF9.10661751906086
aF9.10661751906086
aF9.10661751906086
aF9.10661751906086
aF9.10661751906086
aF9.10661751906086
aF9.10661751906086
aF9.10661751906086
aF9.10661751906086
aF9.10661751906086
aF9.10661751906086
aF9.10661751906086
aF9.10661751906086
aF9.10661751906086
aF9.10661751906086
aF9.10661751906086
aF9.10661751906086
aF9.10661751906086
aF9.10661751906086
aF9.10661751906086
aF9.10661751906086
aF9.10661751906086
aF9.10661751906086
aF9.10661751906086
aF9.10661751906086
aF9.10661751906086
aF9.10661751906086
aF9.10661751906086
aF9.10661751906086
aF9.10661751906086
aF9.10661751906086
aF9.10661751906086
aF9.10661751906086
aF9.10661751906086
aF9.10661751906086
aF9.10661751906086
aF9.10661751906086
aF9.10661751906086
aF9.10661751906086
aF9.10661751906086
aF9.10661751906086
aF9.10661751906086
aF9.10661751906086
aF9.10661751906086
aF9.10661751906086
aF9.10661751906086
aF9.10661751906086
aF9.10661751906086
aF9.10661751906086
aF9.10661751906086
aF9.10661751906086
aF9.10661751906086
aF9.10661751906086
aF9.10661751906086
aF9.10661751906086
aF9.10661751906086
aF9.10661751906086
aF9.10661751906086
aF9.10661751906086
aF9.10661751906086
aF9.10661751906086
aF9.10661751906086
aF9.10661751906086
aF9.10661751906086
aF9.10661751906086
aF9.10661751906086
aF9.10661751906086
aF9.10661751906086
aF9.10661751906086
aF9.10661751906086
aF9.10661751906086
aF9.10661751906086
aF9.10661751906086
aF9.10661751906086
aF9.10661751906086
aF9.10661751906086
aF9.10661751906086
aF9.10661751906086
aF9.10661751906086
aF9.10661751906086
aF9.10661751906086
aF9.10661751906086
aF9.10661751906086
aF9.10661751906086
aF9.10661751906086
aF9.10661751906086
aF9.10661751906086
aF9.10661751906086
aF9.10661751906086
aF9.10661751906086
aF9.10661751906086
aF9.10661751906086
aF9.10661751906086
aF9.10661751906086
aF9.10661751906086
aF9.10661751906086
aF9.10661751906086
aF9.10661751906086
aF9.10661751906086
aF9.10661751906086
aF9.10661751906086
aF9.10661751906086
aF9.10661751906086
aF9.10661751906086
aF9.10661751906086
aF9.10661751906086
aF9.10661751906086
aF9.10661751906086
aF9.10661751906086
aF9.10661751906086
aF9.10661751906086
aF9.10661751906086
aF9.10661751906086
aF9.10661751906086
aF9.10661751906086
aF9.10661751906086
aF9.10661751906086
aF9.10661751906086
aF9.10661751906086
aF9.10661751906086
aF9.10661751906086
aF9.10661751906086
aF9.10661751906086
aF9.10661751906086
aF9.10661751906086
aF9.10661751906086
aF9.10661751906086
aF9.10661751906086
aF9.10661751906086
aF9.10661751906086
aF9.10661751906086
aF9.10661751906086
aF9.10661751906086
aF9.10661751906086
aF9.10661751906086
aF9.10661751906086
aF9.10661751906086
aF9.10661751906086
aF9.10661751906086
aF9.10661751906086
aF9.10661751906086
aF9.10661751906086
aF9.10661751906086
aF9.10661751906086
aF9.10661751906086
aF9.10661751906086
aF9.10661751906086
aF9.10661751906086
aF9.10661751906086
aF9.10661751906086
aF9.10661751906086
aF9.10661751906086
aF9.10661751906086
aF9.10661751906086
aF9.10661751906086
aF9.10661751906086
aF9.10661751906086
aF9.10661751906086
aF9.10661751906086
aF9.10661751906086
aF9.10661751906086
aF9.10661751906086
aF9.10661751906086
aF9.10661751906086
aF9.10661751906086
aF9.10661751906086
aF9.10661751906086
aF9.10661751906086
aF9.10661751906086
aF9.10661751906086
aF9.10661751906086
aF9.10661751906086
aF9.10661751906086
aF9.10661751906086
aF9.10661751906086
aF9.10661751906086
aF9.10661751906086
aF9.10661751906086
aF9.10661751906086
aF9.10661751906086
aF9.10661751906086
aF9.10661751906086
aF9.10661751906086
aF9.10661751906086
aF9.10661751906086
aF9.10661751906086
aF9.10661751906086
aF9.10661751906086
aF9.10661751906086
aF9.10661751906086
aF9.10661751906086
aF9.10661751906086
aF9.10661751906086
aF9.10661751906086
aF9.10661751906086
aF9.10661751906086
aF9.10661751906086
aF9.10661751906086
aF9.10661751906086
aF9.10661751906086
aF9.10661751906086
aF9.10661751906086
aF9.10661751906086
aF9.10661751906086
aF9.10661751906086
aF9.10661751906086
aF9.10661751906086
aF9.10661751906086
aF9.10661751906086
aF9.10661751906086
aF9.10661751906086
aF9.10661751906086
aF9.10661751906086
aF9.10661751906086
aF9.10661751906086
aF9.10661751906086
aF9.10661751906086
aF9.10661751906086
aF9.10661751906086
aF9.10661751906086
aF9.10661751906086
aF9.10661751906086
aF9.10661751906086
aF9.10661751906086
aF9.10661751906086
aF9.10661751906086
aF9.10661751906086
aF9.10661751906086
aF9.10661751906086
aF9.10661751906086
aF9.10661751906086
aF9.10661751906086
aF9.10661751906086
aF9.10661751906086
aF9.10661751906086
aF9.10661751906086
aF9.10661751906086
aF9.10661751906086
aF9.10661751906086
aF9.10661751906086
aF9.10661751906086
aF9.10661751906086
aF9.10661751906086
aF9.10661751906086
aF9.10661751906086
aF9.10661751906086
aF9.10661751906086
aF9.10661751906086
aF9.10661751906086
aF9.10661751906086
aF9.10661751906086
aF9.10661751906086
aF9.10661751906086
aF9.10661751906086
aF9.10661751906086
aF9.10661751906086
aF9.10661751906086
aF9.10661751906086
aF9.10661751906086
aF9.10661751906086
aF9.10661751906086
aF9.10661751906086
aF9.10661751906086
aF9.10661751906086
aF9.10661751906086
aF9.10661751906086
aF9.10661751906086
aF9.10661751906086
aF9.10661751906086
aF9.10661751906086
aF9.10661751906086
aF9.10661751906086
aF9.10661751906086
aF9.10661751906086
aF9.10661751906086
aF9.10661751906086
aF9.10661751906086
aF9.10661751906086
aF9.10661751906086
aF9.10661751906086
aF9.10661751906086
aF9.10661751906086
aF9.10661751906086
aF9.10661751906086
aF9.10661751906086
aF9.10661751906086
aF9.10661751906086
aF9.10661751906086
aF9.10661751906086
aF9.10661751906086
aF9.10661751906086
aF9.10661751906086
aF9.10661751906086
aF9.10661751906086
aF9.10661751906086
aF9.10661751906086
aF9.10661751906086
aF9.10661751906086
aF9.10661751906086
aF9.10661751906086
aF9.10661751906086
aF9.10661751906086
aF9.10661751906086
aF9.10661751906086
aF9.10661751906086
aF9.10661751906086
aF9.10661751906086
aF9.10661751906086
aF9.10661751906086
aF9.10661751906086
aF9.10661751906086
aF9.10661751906086
aF9.10661751906086
aF9.10661751906086
aF9.10661751906086
aF9.10661751906086
aF9.10661751906086
aF9.10661751906086
aF9.10661751906086
aF9.10661751906086
aF9.10661751906086
aF9.10661751906086
aF9.10661751906086
aF9.10661751906086
aF9.10661751906086
aF9.10661751906086
aF9.10661751906086
aF9.10661751906086
aF9.10661751906086
aF9.10661751906086
aF9.10661751906086
aF9.10661751906086
aF9.10661751906086
aF9.10661751906086
aF9.10661751906086
aF9.10661751906086
aF9.10661751906086
aF9.10661751906086
aF9.10661751906086
aF9.10661751906086
aF9.10661751906086
aF9.10661751906086
aF9.10661751906086
aF9.10661751906086
aF9.10661751906086
aF9.10661751906086
aF9.10661751906086
aF9.10661751906086
aF9.10661751906086
aF9.10661751906086
aF9.10661751906086
aF9.10661751906086
aF9.10661751906086
aF9.10661751906086
aF9.10661751906086
aF9.10661751906086
aF9.10661751906086
aF9.10661751906086
aF9.10661751906086
aF9.10661751906086
aF9.10661751906086
aF9.10661751906086
aF9.10661751906086
aF9.10661751906086
aF9.10661751906086
aF9.10661751906086
aF9.10661751906086
aF9.10661751906086
aF9.10661751906086
aF9.10661751906086
aF9.10661751906086
aF9.10661751906086
aF9.10661751906086
aF9.10661751906086
aF9.10661751906086
aF9.10661751906086
aF9.10661751906086
aF9.10661751906086
aF9.10661751906086
aF9.10661751906086
aF9.10661751906086
aF9.10661751906086
aF9.10661751906086
aF9.10661751906086
aF9.10661751906086
aF9.10661751906086
aF9.10661751906086
aF9.10661751906086
aF9.10661751906086
aF9.10661751906086
aF9.10661751906086
aF9.10661751906086
aF9.10661751906086
aF9.10661751906086
aF9.10661751906086
aF9.10661751906086
aF9.10661751906086
aF9.10661751906086
aF9.10661751906086
aF9.10661751906086
aF9.10661751906086
aF9.10661751906086
aF9.10661751906086
aF9.10661751906086
aF9.10661751906086
aF9.10661751906086
aF9.10661751906086
aF9.10661751906086
aF9.10661751906086
aF9.10661751906086
aF9.10661751906086
aF9.10661751906086
aF9.10661751906086
aF9.10661751906086
aF9.10661751906086
aF9.10661751906086
aF9.10661751906086
aF9.10661751906086
aF9.10661751906086
aF9.10661751906086
aF9.10661751906086
aF9.10661751906086
aF9.10661751906086
aF9.10661751906086
aF9.10661751906086
aF9.10661751906086
aF9.10661751906086
aF9.10661751906086
aF9.10661751906086
aF9.10661751906086
aF9.10661751906086
aF9.10661751906086
aF9.10661751906086
aF9.10661751906086
aF9.10661751906086
aF9.10661751906086
aF9.10661751906086
aF9.10661751906086
aF9.10661751906086
aF9.10661751906086
aF9.10661751906086
aF9.10661751906086
aF9.10661751906086
aF9.10661751906086
aF9.10661751906086
aF9.10661751906086
aF9.10661751906086
aF9.10661751906086
aF9.10661751906086
aF9.10661751906086
aF9.10661751906086
aF9.10661751906086
aF9.10661751906086
aF9.10661751906086
aF9.10661751906086
aF9.10661751906086
aF9.10661751906086
aF9.10661751906086
aF9.10661751906086
aF9.10661751906086
aF9.10661751906086
aF9.10661751906086
aF9.10661751906086
aF9.10661751906086
aF9.10661751906086
aF9.10661751906086
aF9.10661751906086
aF9.10661751906086
aF9.10661751906086
aF9.10661751906086
aF9.10661751906086
aF9.10661751906086
aF9.10661751906086
aF9.10661751906086
aF9.10661751906086
aF9.10661751906086
aF9.10661751906086
aF9.10661751906086
aF9.10661751906086
aF9.10661751906086
aF9.10661751906086
aF9.10661751906086
aF9.10661751906086
aF9.10661751906086
aF9.10661751906086
aF9.10661751906086
aF9.10661751906086
aF9.10661751906086
aF9.10661751906086
aF9.10661751906086
aF9.10661751906086
aF9.10661751906086
aF9.10661751906086
aF9.10661751906086
aF9.10661751906086
aF9.10661751906086
aF9.10661751906086
aF9.10661751906086
aF9.10661751906086
aF9.10661751906086
aF9.10661751906086
aF9.10661751906086
aF9.10661751906086
aF9.10661751906086
aF9.10661751906086
aF9.10661751906086
aF9.10661751906086
aF9.10661751906086
aF9.10661751906086
aF9.10661751906086
aF9.10661751906086
aF9.10661751906086
aF9.10661751906086
aF9.10661751906086
aF9.10661751906086
aF9.10661751906086
aF9.10661751906086
aF9.10661751906086
aF9.10661751906086
aF9.10661751906086
aF9.10661751906086
aF9.10661751906086
aF9.10661751906086
aF9.10661751906086
aF9.10661751906086
aF9.10661751906086
aF9.10661751906086
aF9.10661751906086
aF9.10661751906086
aF9.10661751906086
aF9.10661751906086
aF9.10661751906086
aF9.10661751906086
aF9.10661751906086
aF9.10661751906086
aF9.10661751906086
aF9.10661751906086
aF9.10661751906086
aF9.10661751906086
aF9.10661751906086
aF9.10661751906086
aF9.10661751906086
aF9.10661751906086
aF9.10661751906086
aF9.10661751906086
aF9.10661751906086
aF9.10661751906086
aF9.10661751906086
aF9.10661751906086
aF9.10661751906086
aF9.10661751906086
aF9.10661751906086
aF9.10661751906086
aF9.10661751906086
aF9.10661751906086
aF9.10661751906086
aF9.10661751906086
aF9.10661751906086
aF9.10661751906086
aF9.10661751906086
aF9.10661751906086
aF9.10661751906086
aF9.10661751906086
aF9.10661751906086
aF9.10661751906086
aF9.10661751906086
aF9.10661751906086
aF9.10661751906086
aF9.10661751906086
aF9.10661751906086
aF9.10661751906086
aF9.10661751906086
aF9.10661751906086
aF9.10661751906086
aF9.10661751906086
aF9.10661751906086
aF9.10661751906086
aF9.10661751906086
aF9.10661751906086
aF9.10661751906086
aF9.10661751906086
aF9.10661751906086
aF9.10661751906086
aF9.10661751906086
aF9.10661751906086
aF9.10661751906086
aF9.10661751906086
aF9.10661751906086
aF9.10661751906086
aF9.10661751906086
aF9.10661751906086
aF9.10661751906086
aF9.10661751906086
aF9.10661751906086
aF9.10661751906086
aF9.10661751906086
aF9.10661751906086
aF9.10661751906086
aF9.10661751906086
aF9.10661751906086
aF9.10661751906086
aF9.10661751906086
aF9.10661751906086
aF9.10661751906086
aF9.10661751906086
aF9.10661751906086
aF9.10661751906086
aF9.10661751906086
aF9.10661751906086
aF9.10661751906086
aF9.10661751906086
aF9.10661751906086
aF9.10661751906086
aF9.10661751906086
aF9.10661751906086
aF9.10661751906086
aF9.10661751906086
aF9.10661751906086
aF9.10661751906086
aF9.10661751906086
aF9.10661751906086
aF9.10661751906086
aF9.10661751906086
aF9.10661751906086
aF9.10661751906086
aF9.10661751906086
aF9.10661751906086
aF9.10661751906086
aF9.10661751906086
aF9.10661751906086
aF9.10661751906086
aF9.10661751906086
aF9.10661751906086
aF9.10661751906086
aF9.10661751906086
aF9.10661751906086
aF9.10661751906086
aF9.10661751906086
aF9.10661751906086
aF9.10661751906086
aF9.10661751906086
aF9.10661751906086
aF9.10661751906086
aF9.10661751906086
aF9.10661751906086
aF9.10661751906086
aF9.10661751906086
aF9.10661751906086
aF9.10661751906086
aF9.10661751906086
aF9.10661751906086
aF9.10661751906086
aF9.10661751906086
aF9.10661751906086
aF9.10661751906086
aF9.10661751906086
aF9.10661751906086
aF9.10661751906086
aF9.10661751906086
aF9.10661751906086
aF9.10661751906086
aF9.10661751906086
aF9.10661751906086
aF9.10661751906086
aF9.10661751906086
aF9.10661751906086
aF9.10661751906086
aF9.10661751906086
aF9.10661751906086
aF9.10661751906086
aF9.10661751906086
aF9.10661751906086
aF9.10661751906086
aF9.10661751906086
aF9.10661751906086
aF9.10661751906086
aF9.10661751906086
aF9.10661751906086
aF9.10661751906086
aF9.10661751906086
aF9.10661751906086
aF9.10661751906086
aF9.10661751906086
aF9.10661751906086
aF9.10661751906086
aF9.10661751906086
aF9.10661751906086
aF9.10661751906086
aF9.10661751906086
aF9.10661751906086
aF9.10661751906086
aF9.10661751906086
aF9.10661751906086
aF9.10661751906086
aF9.10661751906086
aF9.10661751906086
aF9.10661751906086
aF9.10661751906086
aF9.10661751906086
aF9.10661751906086
aF9.10661751906086
aF9.10661751906086
aF9.10661751906086
aF9.10661751906086
aF9.10661751906086
aF9.10661751906086
aF9.10661751906086
aF9.10661751906086
aF9.10661751906086
aF9.10661751906086
aF9.10661751906086
aF9.10661751906086
aF9.10661751906086
aF9.10661751906086
aF9.10661751906086
aF9.10661751906086
aF9.10661751906086
aF9.10661751906086
aF9.10661751906086
aF9.10661751906086
aF9.10661751906086
aF9.10661751906086
aF9.10661751906086
aF9.10661751906086
aF9.10661751906086
aF9.10661751906086
aF9.10661751906086
aF9.10661751906086
aF9.10661751906086
aF9.10661751906086
aF9.10661751906086
aF9.10661751906086
aF9.10661751906086
aF9.10661751906086
aF9.10661751906086
aF9.10661751906086
aF9.10661751906086
aF9.10661751906086
aF9.10661751906086
aF9.10661751906086
aF9.10661751906086
aF9.10661751906086
aF9.10661751906086
aF9.10661751906086
aF9.10661751906086
aF9.10661751906086
aF9.10661751906086
aF9.10661751906086
aF9.10661751906086
aF9.10661751906086
aF9.10661751906086
aF9.10661751906086
aF9.10661751906086
aF9.10661751906086
aF9.10661751906086
aF9.10661751906086
aF9.10661751906086
aF9.10661751906086
aF9.10661751906086
aF9.10661751906086
aF9.10661751906086
aF9.10661751906086
aF9.10661751906086
aF9.10661751906086
aF9.10661751906086
aF9.10661751906086
aF9.10661751906086
aF9.10661751906086
aF9.10661751906086
aF9.10661751906086
aF9.10661751906086
aF9.10661751906086
aF9.10661751906086
aF9.10661751906086
aF9.10661751906086
aF9.10661751906086
aF9.10661751906086
aF9.10661751906086
aF9.10661751906086
aF9.10661751906086
aF9.10661751906086
aF9.10661751906086
aF9.10661751906086
aF9.10661751906086
aF9.10661751906086
aF9.10661751906086
aF9.10661751906086
aF9.10661751906086
aF9.10661751906086
aF9.10661751906086
aF9.10661751906086
aF9.10661751906086
aF9.10661751906086
aF9.10661751906086
aF9.10661751906086
aF9.10661751906086
aF9.10661751906086
aF9.10661751906086
aF9.10661751906086
aF9.10661751906086
aF9.10661751906086
aF9.10661751906086
aF9.10661751906086
aF9.10661751906086
aF9.10661751906086
aF9.10661751906086
aF9.10661751906086
aF9.10661751906086
aF9.10661751906086
aF9.10661751906086
aF9.10661751906086
aF9.10661751906086
aF9.10661751906086
aF9.10661751906086
aF9.10661751906086
aF9.10661751906086
aF9.10661751906086
aF9.10661751906086
aF9.10661751906086
aF9.10661751906086
aF9.10661751906086
aF9.10661751906086
aF9.10661751906086
aF9.10661751906086
aF9.10661751906086
aF9.10661751906086
aF9.10661751906086
aF9.10661751906086
aF9.10661751906086
aF9.10661751906086
aF9.10661751906086
aF9.10661751906086
aF9.10661751906086
aF9.10661751906086
aF9.10661751906086
aF9.10661751906086
aF9.10661751906086
aF9.10661751906086
aF9.10661751906086
aF9.10661751906086
aF9.10661751906086
aF9.10661751906086
aF9.10661751906086
aF9.10661751906086
aF9.10661751906086
aF9.10661751906086
aF9.10661751906086
aF9.10661751906086
aF9.10661751906086
aF9.10661751906086
aF9.10661751906086
aF9.10661751906086
aF9.10661751906086
aF9.10661751906086
aF9.10661751906086
aF9.10661751906086
aF9.10661751906086
aF9.10661751906086
aF9.10661751906086
aF9.10661751906086
aF9.10661751906086
aF9.10661751906086
aF9.10661751906086
aF9.10661751906086
aF9.10661751906086
aF9.10661751906086
aF9.10661751906086
aF9.10661751906086
aF9.10661751906086
aF9.10661751906086
aF9.10661751906086
aF9.10661751906086
aF9.10661751906086
aF9.10661751906086
aF9.10661751906086
aF9.10661751906086
aF9.10661751906086
aF9.10661751906086
aF9.10661751906086
aF9.10661751906086
aF9.10661751906086
aF9.10661751906086
aF9.10661751906086
aF9.10661751906086
aF9.10661751906086
aF9.10661751906086
aF9.10661751906086
aF9.10661751906086
aF9.10661751906086
aF9.10661751906086
aF9.10661751906086
aF9.10661751906086
aF9.10661751906086
aF9.10661751906086
aF9.10661751906086
aF9.10661751906086
aF9.10661751906086
aF9.10661751906086
aF9.10661751906086
aF9.10661751906086
aF9.10661751906086
aF9.10661751906086
aF9.10661751906086
aF9.10661751906086
aF9.10661751906086
aF9.10661751906086
aF9.10661751906086
aF9.10661751906086
aF9.10661751906086
aF9.10661751906086
aF9.10661751906086
aF9.10661751906086
aF9.10661751906086
aF9.10661751906086
aF9.10661751906086
aF9.10661751906086
aF9.10661751906086
aF9.10661751906086
aF9.10661751906086
aF9.10661751906086
aF9.10661751906086
aF9.10661751906086
aF9.10661751906086
aF9.10661751906086
aF9.10661751906086
aF9.10661751906086
aF9.10661751906086
aF9.10661751906086
aF9.10661751906086
aF9.10661751906086
aF9.10661751906086
aF9.10661751906086
aF9.10661751906086
aF9.10661751906086
aF9.10661751906086
aF9.10661751906086
aF9.10661751906086
aF9.10661751906086
aF9.10661751906086
aF9.10661751906086
aF9.10661751906086
aF9.10661751906086
aF9.10661751906086
aF9.10661751906086
aF9.10661751906086
aF9.10661751906086
aF9.10661751906086
aF9.10661751906086
aF9.10661751906086
aF9.10661751906086
aF9.10661751906086
aF9.10661751906086
aF9.10661751906086
aF9.10661751906086
aF9.10661751906086
aF9.10661751906086
aF9.10661751906086
aF9.10661751906086
aF9.10661751906086
aF9.10661751906086
aF9.10661751906086
aF9.10661751906086
aF9.10661751906086
aF9.10661751906086
aF9.10661751906086
aF9.10661751906086
aF9.10661751906086
aF9.10661751906086
aF9.10661751906086
aF9.10661751906086
aF9.10661751906086
aF9.10661751906086
aF9.10661751906086
aF9.10661751906086
aF9.10661751906086
aF9.10661751906086
aF9.10661751906086
aF9.10661751906086
aF9.10661751906086
aF9.10661751906086
aF9.10661751906086
aF9.10661751906086
aF9.10661751906086
aF9.10661751906086
aF9.10661751906086
aF9.10661751906086
aF9.10661751906086
aF9.10661751906086
aF9.10661751906086
aF9.10661751906086
aF9.10661751906086
aF9.10661751906086
aF9.10661751906086
aF9.10661751906086
aF9.10661751906086
aF9.10661751906086
aF9.10661751906086
aF9.10661751906086
aF9.10661751906086
aF9.10661751906086
aF9.10661751906086
aF9.10661751906086
aF9.10661751906086
aF9.10661751906086
aF9.10661751906086
aF9.10661751906086
aF9.10661751906086
aF9.10661751906086
aF9.10661751906086
aF9.10661751906086
aF9.10661751906086
aF9.10661751906086
aF9.10661751906086
aF9.10661751906086
aF9.10661751906086
aF9.10661751906086
aF9.10661751906086
aF9.10661751906086
aF9.10661751906086
aF9.10661751906086
aF9.10661751906086
aF9.10661751906086
aF9.10661751906086
aF9.10661751906086
aF9.10661751906086
aF9.10661751906086
aF9.10661751906086
aF9.10661751906086
aF9.10661751906086
aF9.10661751906086
aF9.10661751906086
aF9.10661751906086
aF9.10661751906086
aF9.10661751906086
aF9.10661751906086
aF9.10661751906086
aF9.10661751906086
aF9.10661751906086
aF9.10661751906086
aF9.10661751906086
aF9.10661751906086
aF9.10661751906086
aF9.10661751906086
aF9.10661751906086
aF9.10661751906086
aF9.10661751906086
aF9.10661751906086
aF9.10661751906086
aF9.10661751906086
aF9.10661751906086
aF9.10661751906086
aF9.10661751906086
aF9.10661751906086
aF9.10661751906086
aF9.10661751906086
aF9.10661751906086
aF9.10661751906086
aF9.10661751906086
aF9.10661751906086
aF9.10661751906086
aF9.10661751906086
aF9.10661751906086
aF9.10661751906086
aF9.10661751906086
aF9.10661751906086
aF9.10661751906086
aF9.10661751906086
aF9.10661751906086
aF9.10661751906086
aF9.10661751906086
aF9.10661751906086
aF9.10661751906086
aF9.10661751906086
aF9.10661751906086
aF9.10661751906086
aF9.10661751906086
aF9.10661751906086
aF9.10661751906086
aF9.10661751906086
aF9.10661751906086
aF9.10661751906086
aF9.10661751906086
aF9.10661751906086
aF9.10661751906086
aF9.10661751906086
aF9.10661751906086
aF9.10661751906086
aF9.10661751906086
aF9.10661751906086
aF9.10661751906086
aF9.10661751906086
aF9.10661751906086
aF9.10661751906086
aF9.10661751906086
aF9.10661751906086
aF9.10661751906086
aF9.10661751906086
aF9.10661751906086
aF9.10661751906086
aF9.10661751906086
aF9.10661751906086
aF9.10661751906086
aF9.10661751906086
aF9.10661751906086
aF9.10661751906086
aF9.10661751906086
aF9.10661751906086
aF9.10661751906086
aF9.10661751906086
aF9.10661751906086
aF9.10661751906086
aF9.10661751906086
aF9.10661751906086
aF9.10661751906086
aF9.10661751906086
aF9.10661751906086
aF9.10661751906086
aF9.10661751906086
aF9.10661751906086
aF9.10661751906086
aF9.10661751906086
aF9.10661751906086
aF9.10661751906086
aF9.10661751906086
aF9.10661751906086
aF9.10661751906086
aF9.10661751906086
aF9.10661751906086
aF9.10661751906086
aF9.10661751906086
aF9.10661751906086
aF9.10661751906086
aF9.10661751906086
aF9.10661751906086
aF9.10661751906086
aF9.10661751906086
aF9.10661751906086
aF9.10661751906086
aF9.10661751906086
aF9.10661751906086
aF9.10661751906086
aF9.10661751906086
aF9.10661751906086
aF9.10661751906086
aF9.10661751906086
aF9.10661751906086
aF9.10661751906086
aF9.10661751906086
aF9.10661751906086
aF9.10661751906086
aF9.10661751906086
aF9.10661751906086
aF9.10661751906086
aF9.10661751906086
aF9.10661751906086
aF9.10661751906086
aF9.10661751906086
aF9.10661751906086
aF9.10661751906086
aF9.10661751906086
aF9.10661751906086
aF9.10661751906086
aF9.10661751906086
aF9.10661751906086
aF9.10661751906086
aF9.10661751906086
aF9.10661751906086
aF9.10661751906086
aF9.10661751906086
aF9.10661751906086
aF9.10661751906086
aF9.10661751906086
aF9.10661751906086
aF9.10661751906086
aF9.10661751906086
aF9.10661751906086
aF9.10661751906086
aF9.10661751906086
aF9.10661751906086
aF9.10661751906086
aF9.10661751906086
aF9.10661751906086
aF9.10661751906086
aF9.10661751906086
aF9.10661751906086
aF9.10661751906086
aF9.10661751906086
aF9.10661751906086
aF9.10661751906086
aF9.10661751906086
aF9.10661751906086
aF9.10661751906086
aF9.10661751906086
aF9.10661751906086
aF9.10661751906086
aF9.10661751906086
aF9.10661751906086
aF9.10661751906086
aF9.10661751906086
aF9.10661751906086
aF9.10661751906086
aF9.10661751906086
aF9.10661751906086
aF9.10661751906086
aF9.10661751906086
aF9.10661751906086
aF9.10661751906086
aF9.10661751906086
aF9.10661751906086
aF9.10661751906086
aF9.10661751906086
aF9.10661751906086
aF9.10661751906086
aF9.10661751906086
aF9.10661751906086
aF9.10661751906086
aF9.10661751906086
aF9.10661751906086
aF9.10661751906086
aF9.10661751906086
aF9.10661751906086
aF9.10661751906086
aF9.10661751906086
aF9.10661751906086
aF9.10661751906086
aF9.10661751906086
aF9.10661751906086
aF9.10661751906086
aF9.10661751906086
aF9.10661751906086
aF9.10661751906086
aF9.10661751906086
aF9.10661751906086
aF9.10661751906086
aF9.10661751906086
aF9.10661751906086
aF9.10661751906086
aF9.10661751906086
aF9.10661751906086
aF9.10661751906086
aF9.10661751906086
aF9.10661751906086
aF9.10661751906086
aF9.10661751906086
aF9.10661751906086
aF9.10661751906086
aF9.10661751906086
aF9.10661751906086
aF9.10661751906086
aF9.10661751906086
aF9.10661751906086
aF9.10661751906086
aF9.10661751906086
aF9.10661751906086
aF9.10661751906086
aF9.10661751906086
aF9.10661751906086
aF9.10661751906086
aF9.10661751906086
aF9.10661751906086
aF9.10661751906086
aF9.10661751906086
aF9.10661751906086
aF9.10661751906086
aF9.10661751906086
aF9.10661751906086
aF9.10661751906086
aF9.10661751906086
aF9.10661751906086
aF9.10661751906086
aF9.10661751906086
aF9.10661751906086
aF9.10661751906086
aF9.10661751906086
aF9.10661751906086
aF9.10661751906086
aF9.10661751906086
aF9.10661751906086
aF9.10661751906086
aF9.10661751906086
aF9.10661751906086
aF9.10661751906086
aF9.10661751906086
aF9.10661751906086
aF9.10661751906086
aF9.10661751906086
aF9.10661751906086
aF9.10661751906086
aF9.10661751906086
aF9.10661751906086
aF9.10661751906086
aF9.10661751906086
aF9.10661751906086
aF9.10661751906086
aF9.10661751906086
aF9.10661751906086
aF9.10661751906086
aF9.10661751906086
aF9.10661751906086
aF9.10661751906086
aF9.10661751906086
aF9.10661751906086
aF9.10661751906086
aF9.10661751906086
aF9.10661751906086
aF9.10661751906086
aF9.10661751906086
aF9.10661751906086
aF9.10661751906086
aF9.10661751906086
aF9.10661751906086
aF9.10661751906086
aF9.10661751906086
aF9.10661751906086
aF9.10661751906086
aF9.10661751906086
aF9.10661751906086
aF9.10661751906086
aF9.10661751906086
aF9.10661751906086
aF9.10661751906086
aF9.10661751906086
aF9.10661751906086
aF9.10661751906086
aF9.10661751906086
aF9.10661751906086
aF9.10661751906086
aF9.10661751906086
aF9.10661751906086
aF9.10661751906086
aF9.10661751906086
aF9.10661751906086
aF9.10661751906086
aF9.10661751906086
aF9.10661751906086
aF9.10661751906086
aF9.10661751906086
aF9.10661751906086
aF9.10661751906086
aF9.10661751906086
aF9.10661751906086
aF9.10661751906086
aF9.10661751906086
aF9.10661751906086
aF9.10661751906086
aF9.10661751906086
aF9.10661751906086
aF9.10661751906086
aF9.10661751906086
aF9.10661751906086
aF9.10661751906086
aF9.10661751906086
aF9.10661751906086
aF9.10661751906086
aF9.10661751906086
aF9.10661751906086
aF9.10661751906086
aF9.10661751906086
aF9.10661751906086
aF9.10661751906086
aF9.10661751906086
aF9.10661751906086
aF9.10661751906086
aF9.10661751906086
aF9.10661751906086
aF9.10661751906086
aF9.10661751906086
aF9.10661751906086
aF9.10661751906086
aF9.10661751906086
aF9.10661751906086
aF9.10661751906086
aF9.10661751906086
aF9.10661751906086
aF9.10661751906086
aF9.10661751906086
aF9.10661751906086
aF9.10661751906086
aF9.10661751906086
aF9.10661751906086
aF9.10661751906086
aF9.10661751906086
aF9.10661751906086
aF9.10661751906086
aF9.10661751906086
aF9.10661751906086
aF9.10661751906086
aF9.10661751906086
aF9.10661751906086
aF9.10661751906086
aF9.10661751906086
aF9.10661751906086
aF9.10661751906086
aF9.10661751906086
aF9.10661751906086
aF9.10661751906086
aF9.10661751906086
aF9.10661751906086
aF9.10661751906086
aF9.10661751906086
aF9.10661751906086
aF9.10661751906086
aF9.10661751906086
aF9.10661751906086
aF9.10661751906086
aF9.10661751906086
aF9.10661751906086
aF9.10661751906086
aF9.10661751906086
aF9.10661751906086
aF9.10661751906086
aF9.10661751906086
aF9.10661751906086
aF9.10661751906086
aF9.10661751906086
aF9.10661751906086
aF9.10661751906086
aF9.10661751906086
aF9.10661751906086
aF9.10661751906086
aF9.10661751906086
aF9.10661751906086
aF9.10661751906086
aF9.10661751906086
aF9.10661751906086
aF9.10661751906086
aF9.10661751906086
aF9.10661751906086
aF9.10661751906086
aF9.10661751906086
aF9.10661751906086
aF9.10661751906086
aF9.10661751906086
aF9.10661751906086
aF9.10661751906086
aF9.10661751906086
aF9.10661751906086
aF9.10661751906086
aF9.10661751906086
aF9.10661751906086
aF9.10661751906086
aF9.10661751906086
aF9.10661751906086
aF9.10661751906086
aF9.10661751906086
aF9.10661751906086
aF9.10661751906086
aF9.10661751906086
aF9.10661751906086
aF9.10661751906086
aF9.10661751906086
aF9.10661751906086
aF9.10661751906086
aF9.10661751906086
aF9.10661751906086
aF9.10661751906086
aF9.10661751906086
aF9.10661751906086
aF9.10661751906086
aF9.10661751906086
aF9.10661751906086
aF9.10661751906086
aF9.10661751906086
aF9.10661751906086
aF9.10661751906086
aF9.10661751906086
aF9.10661751906086
aF9.10661751906086
aF9.10661751906086
aF9.10661751906086
aF9.10661751906086
aF9.10661751906086
aF9.10661751906086
aF9.10661751906086
aF9.10661751906086
aF9.10661751906086
aF9.10661751906086
aF9.10661751906086
aF9.10661751906086
aF9.10661751906086
aF9.10661751906086
aF9.10661751906086
aF9.10661751906086
aF9.10661751906086
aF9.10661751906086
aF9.10661751906086
aF9.10661751906086
aF9.10661751906086
aF9.10661751906086
aF9.10661751906086
aF9.10661751906086
aF9.10661751906086
aF9.10661751906086
aF9.10661751906086
aF9.10661751906086
aF9.10661751906086
aF9.10661751906086
aF9.10661751906086
aF9.10661751906086
aF9.10661751906086
aF9.10661751906086
aF9.10661751906086
aF9.10661751906086
aF9.10661751906086
aF9.10661751906086
aF9.10661751906086
aF9.10661751906086
aF9.10661751906086
aF9.10661751906086
aF9.10661751906086
aF9.10661751906086
aF9.10661751906086
aF9.10661751906086
aF9.10661751906086
aF9.10661751906086
aF9.10661751906086
aF9.10661751906086
aF9.10661751906086
aF9.10661751906086
aF9.10661751906086
aF9.10661751906086
aF9.10661751906086
aF9.10661751906086
aF9.10661751906086
aF9.10661751906086
aF9.10661751906086
aF9.10661751906086
aF9.10661751906086
aF9.10661751906086
aF9.10661751906086
aF9.10661751906086
aF9.10661751906086
aF9.10661751906086
aF9.10661751906086
aF9.10661751906086
aF9.10661751906086
aF9.10661751906086
aF9.10661751906086
aF9.10661751906086
aF9.10661751906086
aF9.10661751906086
aF9.10661751906086
aF9.10661751906086
aF9.10661751906086
aF9.10661751906086
aF9.10661751906086
aF9.10661751906086
aF9.10661751906086
aF9.10661751906086
aF9.10661751906086
aF9.10661751906086
aF9.10661751906086
aF9.10661751906086
aF9.10661751906086
aF9.10661751906086
aF9.10661751906086
aF9.10661751906086
aF9.10661751906086
aF9.10661751906086
aF9.10661751906086
aF9.10661751906086
aF9.10661751906086
aF9.10661751906086
aF9.10661751906086
aF9.10661751906086
aF9.10661751906086
aF9.10661751906086
aF9.10661751906086
aF9.10661751906086
aF9.10661751906086
aF9.10661751906086
aF9.10661751906086
aF9.10661751906086
aF9.10661751906086
aF9.10661751906086
aF9.10661751906086
aF9.10661751906086
aF9.10661751906086
aF9.10661751906086
aF9.10661751906086
aF9.10661751906086
aF9.10661751906086
aF9.10661751906086
aF9.10661751906086
aF9.10661751906086
aF9.10661751906086
aF9.10661751906086
aF9.10661751906086
aF9.10661751906086
aF9.10661751906086
aF9.10661751906086
aF9.10661751906086
aF9.10661751906086
aF9.10661751906086
aF9.10661751906086
aF9.10661751906086
aF9.10661751906086
aF9.10661751906086
aF9.10661751906086
aF9.10661751906086
aF9.10661751906086
aF9.10661751906086
aF9.10661751906086
aF9.10661751906086
aF9.10661751906086
aF9.10661751906086
aF9.10661751906086
aF9.10661751906086
aF9.10661751906086
aF9.10661751906086
aF9.10661751906086
aF9.10661751906086
aF9.10661751906086
aF9.10661751906086
aF9.10661751906086
aF9.10661751906086
aF9.10661751906086
aF9.10661751906086
aF9.10661751906086
aF9.10661751906086
aF9.10661751906086
aF9.10661751906086
aF9.10661751906086
aF9.10661751906086
aF9.10661751906086
aF9.10661751906086
aF9.10661751906086
aF9.10661751906086
aF9.10661751906086
aF9.10661751906086
aF9.10661751906086
aF9.10661751906086
aF9.10661751906086
aF9.10661751906086
aF9.10661751906086
aF9.10661751906086
aF9.10661751906086
aF9.10661751906086
aF9.10661751906086
aF9.10661751906086
aF9.10661751906086
aF9.10661751906086
aF9.10661751906086
aF9.10661751906086
aF9.10661751906086
aF9.10661751906086
aF9.10661751906086
aF9.10661751906086
aF9.10661751906086
aF9.10661751906086
aF9.10661751906086
aF9.10661751906086
aF9.10661751906086
aF9.10661751906086
aF9.10661751906086
aF9.10661751906086
aF9.10661751906086
aF9.10661751906086
aF9.10661751906086
aF9.10661751906086
aF9.10661751906086
aF9.10661751906086
aF9.10661751906086
aF9.10661751906086
aF9.10661751906086
aF9.10661751906086
aF9.10661751906086
aF9.10661751906086
aF9.10661751906086
aF9.10661751906086
aF9.10661751906086
aF9.10661751906086
aF9.10661751906086
aF9.10661751906086
aF9.10661751906086
aF9.10661751906086
aF9.10661751906086
aF9.10661751906086
aF9.10661751906086
aF9.10661751906086
aF9.10661751906086
aF9.10661751906086
aF9.10661751906086
aF9.10661751906086
aF9.10661751906086
aF9.10661751906086
aF9.10661751906086
aF9.10661751906086
aF9.10661751906086
aF9.10661751906086
aF9.10661751906086
aF9.10661751906086
aF9.10661751906086
aF9.10661751906086
aF9.10661751906086
aF9.10661751906086
aF9.10661751906086
aF9.10661751906086
aF9.10661751906086
aF9.10661751906086
aF9.10661751906086
aF9.10661751906086
aF9.10661751906086
aF9.10661751906086
aF9.10661751906086
aF9.10661751906086
aF9.10661751906086
aF9.10661751906086
aF9.10661751906086
aF9.10661751906086
aF9.10661751906086
aF9.10661751906086
aF9.10661751906086
aF9.10661751906086
aF9.10661751906086
aF9.10661751906086
aF9.10661751906086
aF9.10661751906086
aF9.10661751906086
aF9.10661751906086
aF9.10661751906086
aF9.10661751906086
aF9.10661751906086
aF9.10661751906086
aF9.10661751906086
aF9.10661751906086
aF9.10661751906086
aF9.10661751906086
aF9.10661751906086
aF9.10661751906086
aF9.10661751906086
aF9.10661751906086
aF9.10661751906086
aF9.10661751906086
aF9.10661751906086
aF9.10661751906086
aF9.10661751906086
aF9.10661751906086
aF9.10661751906086
aF9.10661751906086
aF9.10661751906086
aF9.10661751906086
aF9.10661751906086
aF9.10661751906086
aF9.10661751906086
aF9.10661751906086
aF9.10661751906086
aF9.10661751906086
aF9.10661751906086
aF9.10661751906086
aF9.10661751906086
aF9.10661751906086
aF9.10661751906086
aF9.10661751906086
aF9.10661751906086
aF9.10661751906086
aF9.10661751906086
aF9.10661751906086
aF9.10661751906086
aF9.10661751906086
aF9.10661751906086
aF9.10661751906086
aF9.10661751906086
aF9.10661751906086
aF9.10661751906086
aF9.10661751906086
aF9.10661751906086
aF9.10661751906086
aF9.10661751906086
aF9.10661751906086
aF9.10661751906086
aF9.10661751906086
aF9.10661751906086
aF9.10661751906086
aF9.10661751906086
aF9.10661751906086
aF9.10661751906086
aF9.10661751906086
aF9.10661751906086
aF9.10661751906086
aF9.10661751906086
aF9.10661751906086
aF9.10661751906086
aF9.10661751906086
aF9.10661751906086
aF9.10661751906086
aF9.10661751906086
aF9.10661751906086
aF9.10661751906086
aF9.10661751906086
aF9.10661751906086
aF9.10661751906086
aF9.10661751906086
aF9.10661751906086
aF9.10661751906086
aF9.10661751906086
aF9.10661751906086
aF9.10661751906086
aF9.10661751906086
aF9.10661751906086
aF9.10661751906086
aF9.10661751906086
aF9.10661751906086
aF9.10661751906086
aF9.10661751906086
aF9.10661751906086
aF9.10661751906086
aF9.10661751906086
aF9.10661751906086
aF9.10661751906086
aF9.10661751906086
aF9.10661751906086
aF9.10661751906086
aF9.10661751906086
aF9.10661751906086
aF9.10661751906086
aF9.10661751906086
aF9.10661751906086
aF9.10661751906086
aF9.10661751906086
aF9.10661751906086
aF9.10661751906086
aF9.10661751906086
aF9.10661751906086
aF9.10661751906086
aF9.10661751906086
aF9.10661751906086
aF9.10661751906086
aF9.10661751906086
aF9.10661751906086
aF9.10661751906086
aF9.10661751906086
aF9.10661751906086
aF9.10661751906086
aF9.10661751906086
aF9.10661751906086
aF9.10661751906086
aF9.10661751906086
aF9.10661751906086
aF9.10661751906086
aF9.10661751906086
aF9.10661751906086
aF9.10661751906086
aF9.10661751906086
aF9.10661751906086
aF9.10661751906086
aF9.10661751906086
aF9.10661751906086
aF9.10661751906086
aF9.10661751906086
aF9.10661751906086
aF9.10661751906086
aF9.10661751906086
aF9.10661751906086
aF9.10661751906086
aF9.10661751906086
aF9.10661751906086
aF9.10661751906086
aF9.10661751906086
aF9.10661751906086
aF9.10661751906086
aF9.10661751906086
aF9.10661751906086
aF9.10661751906086
aF9.10661751906086
aF9.10661751906086
aF9.10661751906086
aF9.10661751906086
aF9.10661751906086
aF9.10661751906086
aF9.10661751906086
aF9.10661751906086
aF9.10661751906086
aF9.10661751906086
aF9.10661751906086
aF9.10661751906086
aF9.10661751906086
aF9.10661751906086
aF9.10661751906086
aF9.10661751906086
aF9.10661751906086
aF9.10661751906086
aF9.10661751906086
aF9.10661751906086
aF9.10661751906086
aF9.10661751906086
aF9.10661751906086
aF9.10661751906086
aF9.10661751906086
aF9.10661751906086
aF9.10661751906086
aF9.10661751906086
aF9.10661751906086
aF9.10661751906086
aF9.10661751906086
aF9.10661751906086
aF9.10661751906086
aF9.10661751906086
aF9.10661751906086
aF9.10661751906086
aF9.10661751906086
aF9.10661751906086
aF9.10661751906086
aF9.10661751906086
aF9.10661751906086
aF9.10661751906086
aF9.10661751906086
aF9.10661751906086
aF9.10661751906086
aF9.10661751906086
aF9.10661751906086
aF9.10661751906086
aF9.10661751906086
aF9.10661751906086
aF9.10661751906086
aF9.10661751906086
aF9.10661751906086
aF9.10661751906086
aF9.10661751906086
aF9.10661751906086
aF9.10661751906086
aF9.10661751906086
aF9.10661751906086
aF9.10661751906086
aF9.10661751906086
aF9.10661751906086
aF9.10661751906086
aF9.10661751906086
aF9.10661751906086
aF9.10661751906086
aF9.10661751906086
aF9.10661751906086
aF9.10661751906086
aF9.10661751906086
aF9.10661751906086
aF9.10661751906086
aF9.10661751906086
aF9.10661751906086
aF9.10661751906086
aF9.10661751906086
aF9.10661751906086
aF9.10661751906086
aF9.10661751906086
aF9.10661751906086
aF9.10661751906086
aF9.10661751906086
aF9.10661751906086
aF9.10661751906086
aF9.10661751906086
aF9.10661751906086
aF9.10661751906086
aF9.10661751906086
aF9.10661751906086
aF9.10661751906086
aF9.10661751906086
aF9.10661751906086
aF9.10661751906086
aF9.10661751906086
aF9.10661751906086
aF9.10661751906086
aF9.10661751906086
aF9.10661751906086
aF9.10661751906086
aF9.10661751906086
aF9.10661751906086
aF9.10661751906086
aF9.10661751906086
aF9.10661751906086
aF9.10661751906086
aF9.10661751906086
aF9.10661751906086
aF9.10661751906086
aF9.10661751906086
aF9.10661751906086
aF9.10661751906086
aF9.10661751906086
aF9.10661751906086
aF9.10661751906086
aF9.10661751906086
aF9.10661751906086
aF9.10661751906086
aF9.10661751906086
aF9.10661751906086
aF9.10661751906086
aF9.10661751906086
aF9.10661751906086
aF9.10661751906086
aF9.10661751906086
aF9.10661751906086
aF9.10661751906086
aF9.10661751906086
aF9.10661751906086
aF9.10661751906086
aF9.10661751906086
aF9.10661751906086
aF9.10661751906086
aF9.10661751906086
aF9.10661751906086
aF9.10661751906086
aF9.10661751906086
aF9.10661751906086
aF9.10661751906086
aF9.10661751906086
aF9.10661751906086
aF9.10661751906086
aF9.10661751906086
aF9.10661751906086
aF9.10661751906086
aF9.10661751906086
aF9.10661751906086
aF9.10661751906086
aF9.10661751906086
aF9.10661751906086
aF9.10661751906086
aF9.10661751906086
aF9.10661751906086
aF9.10661751906086
aF9.10661751906086
aF9.10661751906086
aF9.10661751906086
aF9.10661751906086
aF9.10661751906086
aF9.10661751906086
aF9.10661751906086
aF9.10661751906086
aF9.10661751906086
aF9.10661751906086
aF9.10661751906086
aF9.10661751906086
aF9.10661751906086
aF9.10661751906086
aF9.10661751906086
aF9.10661751906086
aF9.10661751906086
aF9.10661751906086
aF9.10661751906086
aF9.10661751906086
aF9.10661751906086
aF9.10661751906086
aF9.10661751906086
aF9.10661751906086
aF9.10661751906086
aF9.10661751906086
aF9.10661751906086
aF9.10661751906086
aF9.10661751906086
aF9.10661751906086
aF9.10661751906086
aF9.10661751906086
aF9.10661751906086
aF9.10661751906086
aF9.10661751906086
aF9.10661751906086
aF9.10661751906086
aF9.10661751906086
aF9.10661751906086
aF9.10661751906086
aF9.10661751906086
aF9.10661751906086
aF9.10661751906086
aF9.10661751906086
aF9.10661751906086
aF9.10661751906086
aF9.10661751906086
aF9.10661751906086
aF9.10661751906086
aF9.10661751906086
aF9.10661751906086
aF9.10661751906086
aF9.10661751906086
aF9.10661751906086
aF9.10661751906086
aF9.10661751906086
aF9.10661751906086
aF9.10661751906086
aF9.10661751906086
aF9.10661751906086
aF9.10661751906086
aF9.10661751906086
aF9.10661751906086
aF9.10661751906086
aF9.10661751906086
aF9.10661751906086
aF9.10661751906086
aF9.10661751906086
aF9.10661751906086
aF9.10661751906086
aF9.10661751906086
aF9.10661751906086
aF9.10661751906086
aF9.10661751906086
aF9.10661751906086
aF9.10661751906086
aF9.10661751906086
aF9.10661751906086
aF9.10661751906086
aF9.10661751906086
aF9.10661751906086
aF9.10661751906086
aF9.10661751906086
aF9.10661751906086
aF9.10661751906086
aF9.10661751906086
aF9.10661751906086
aF9.10661751906086
aF9.10661751906086
aF9.10661751906086
aF9.10661751906086
aF9.10661751906086
aF9.10661751906086
aF9.10661751906086
aF9.10661751906086
aF9.10661751906086
aF9.10661751906086
aF9.10661751906086
aF9.10661751906086
aF9.10661751906086
aF9.10661751906086
aF9.10661751906086
aF9.10661751906086
aF9.10661751906086
aF9.10661751906086
aF9.10661751906086
aF9.10661751906086
aF9.10661751906086
aF9.10661751906086
aF9.10661751906086
aF9.10661751906086
aF9.10661751906086
aF9.10661751906086
aF9.10661751906086
aF9.10661751906086
aF9.10661751906086
aF9.10661751906086
aF9.10661751906086
aF9.10661751906086
aF9.10661751906086
aF9.10661751906086
aF9.10661751906086
aF9.10661751906086
aF9.10661751906086
aF9.10661751906086
aF9.10661751906086
aF9.10661751906086
aF9.10661751906086
aF9.10661751906086
aF9.10661751906086
aF9.10661751906086
aF9.10661751906086
aF9.10661751906086
aF9.10661751906086
aF9.10661751906086
aF9.10661751906086
aF9.10661751906086
aF9.10661751906086
aF9.10661751906086
aF9.10661751906086
aF9.10661751906086
aF9.10661751906086
aF9.10661751906086
aF9.10661751906086
aF9.10661751906086
aF9.10661751906086
aF9.10661751906086
aF9.10661751906086
aF9.10661751906086
aF9.10661751906086
aF9.10661751906086
aF9.10661751906086
aF9.10661751906086
aF9.10661751906086
aF9.10661751906086
aF9.10661751906086
aF9.10661751906086
aF9.10661751906086
aF9.10661751906086
aF9.10661751906086
aF9.10661751906086
aF9.10661751906086
aF9.10661751906086
aF9.10661751906086
aF9.10661751906086
aF9.10661751906086
aF9.10661751906086
aF9.10661751906086
aF9.10661751906086
aF9.10661751906086
aF9.10661751906086
aF9.10661751906086
aF9.10661751906086
aF9.10661751906086
aF9.10661751906086
aF9.10661751906086
aF9.10661751906086
aF9.10661751906086
aF9.10661751906086
aF9.10661751906086
aF9.10661751906086
aF9.10661751906086
aF9.10661751906086
aF9.10661751906086
aF9.10661751906086
aF9.10661751906086
aF9.10661751906086
aF9.10661751906086
aF9.10661751906086
aF9.10661751906086
aF9.10661751906086
aF9.10661751906086
aF9.10661751906086
aF9.10661751906086
aF9.10661751906086
aF9.10661751906086
aF9.10661751906086
aF9.10661751906086
aF9.10661751906086
aF9.10661751906086
aF9.10661751906086
aF9.10661751906086
aF9.10661751906086
aF9.10661751906086
aF9.10661751906086
aF9.10661751906086
aF9.10661751906086
aF9.10661751906086
aF9.10661751906086
aF9.10661751906086
aF9.10661751906086
aF9.10661751906086
aF9.10661751906086
aF9.10661751906086
aF9.10661751906086
aF9.10661751906086
aF9.10661751906086
aF9.10661751906086
aF9.10661751906086
aF9.10661751906086
aF9.10661751906086
aF9.10661751906086
aF9.10661751906086
aF9.10661751906086
aF9.10661751906086
aF9.10661751906086
aF9.10661751906086
aF9.10661751906086
aF9.10661751906086
aF9.10661751906086
aF9.10661751906086
aF9.10661751906086
aF9.10661751906086
aF9.10661751906086
aF9.10661751906086
aF9.10661751906086
aF9.10661751906086
aF9.10661751906086
aF9.10661751906086
aF9.10661751906086
aF9.10661751906086
aF9.10661751906086
aF9.10661751906086
aF9.10661751906086
aF9.10661751906086
aF9.10661751906086
aF9.10661751906086
aF9.10661751906086
aF9.10661751906086
aF9.10661751906086
aF9.10661751906086
aF9.10661751906086
aF9.10661751906086
aF9.10661751906086
aF9.10661751906086
aF9.10661751906086
aF9.10661751906086
aF9.10661751906086
aF9.10661751906086
aF9.10661751906086
aF9.10661751906086
aF9.10661751906086
aF9.10661751906086
aF9.10661751906086
aF9.10661751906086
aF9.10661751906086
aF9.10661751906086
aF9.10661751906086
aF9.10661751906086
aF9.10661751906086
aF9.10661751906086
aF9.10661751906086
aF9.10661751906086
aF9.10661751906086
aF9.10661751906086
aF9.10661751906086
aF9.10661751906086
aF9.10661751906086
aF9.10661751906086
aF9.10661751906086
aF9.10661751906086
aF9.10661751906086
aF9.10661751906086
aF9.10661751906086
aF9.10661751906086
aF9.10661751906086
aF9.10661751906086
aF9.10661751906086
aF9.10661751906086
aF9.10661751906086
aF9.10661751906086
aF9.10661751906086
aF9.10661751906086
aF9.10661751906086
aF9.10661751906086
aF9.10661751906086
aF9.10661751906086
aF9.10661751906086
aF9.10661751906086
aF9.10661751906086
aF9.10661751906086
aF9.10661751906086
aF9.10661751906086
aF9.10661751906086
aF9.10661751906086
aF9.10661751906086
aF9.10661751906086
aF9.10661751906086
aF9.10661751906086
aF9.10661751906086
aF9.10661751906086
aF9.10661751906086
aF9.10661751906086
aF9.10661751906086
aF9.10661751906086
aF9.10661751906086
aF9.10661751906086
aF9.10661751906086
aF9.10661751906086
aF9.10661751906086
aF9.10661751906086
aF9.10661751906086
aF9.10661751906086
aF9.10661751906086
aF9.10661751906086
aF9.10661751906086
aF9.10661751906086
aF9.10661751906086
aF9.10661751906086
aF9.10661751906086
aF9.10661751906086
aF9.10661751906086
aF9.10661751906086
aF9.10661751906086
aF9.10661751906086
aF9.10661751906086
aF9.10661751906086
aF9.10661751906086
aF9.10661751906086
aF9.10661751906086
aF9.10661751906086
aF9.10661751906086
aF9.10661751906086
aF9.10661751906086
aF9.10661751906086
aF9.10661751906086
aF9.10661751906086
aF9.10661751906086
aF9.10661751906086
aF9.10661751906086
aF9.10661751906086
aF9.10661751906086
aF9.10661751906086
aF9.10661751906086
aF9.10661751906086
aF9.10661751906086
aF9.10661751906086
aF9.10661751906086
aF9.10661751906086
aF9.10661751906086
aF9.10661751906086
aF9.10661751906086
aF9.10661751906086
aF9.10661751906086
aF9.10661751906086
aF9.10661751906086
aF9.10661751906086
aF9.10661751906086
aF9.10661751906086
aF9.10661751906086
aF9.10661751906086
aF9.10661751906086
aF9.10661751906086
aF9.10661751906086
aF9.10661751906086
aF9.10661751906086
aF9.10661751906086
aF9.10661751906086
aF9.10661751906086
aF9.10661751906086
aF9.10661751906086
aF9.10661751906086
aF9.10661751906086
aF9.10661751906086
aF9.10661751906086
aF9.10661751906086
aF9.10661751906086
aF9.10661751906086
aF9.10661751906086
aF9.10661751906086
aF9.10661751906086
aF9.10661751906086
aF9.10661751906086
aF9.10661751906086
aF9.10661751906086
aF9.10661751906086
aF9.10661751906086
aF9.10661751906086
aF9.10661751906086
aF9.10661751906086
aF9.10661751906086
aF9.10661751906086
aF9.10661751906086
aF9.10661751906086
aF9.10661751906086
aF9.10661751906086
aF9.10661751906086
aF9.10661751906086
aF9.10661751906086
aF9.10661751906086
aF9.10661751906086
aF9.10661751906086
aF9.10661751906086
aF9.10661751906086
aF9.10661751906086
aF9.10661751906086
aF9.10661751906086
aF9.10661751906086
aF9.10661751906086
aF9.10661751906086
aF9.10661751906086
aF9.10661751906086
aF9.10661751906086
aF9.10661751906086
aF9.10661751906086
aF9.10661751906086
aF9.10661751906086
aF9.10661751906086
aF9.10661751906086
aF9.10661751906086
aF9.10661751906086
aF9.10661751906086
aF9.10661751906086
aF9.10661751906086
aF9.10661751906086
aF9.10661751906086
aF9.10661751906086
aF9.10661751906086
aF9.10661751906086
aF9.10661751906086
aF9.10661751906086
aF9.10661751906086
aF9.10661751906086
aF9.10661751906086
aF9.10661751906086
aF9.10661751906086
aF9.10661751906086
aF9.10661751906086
aF9.10661751906086
aF9.10661751906086
aF9.10661751906086
aF9.10661751906086
aF9.10661751906086
aF9.10661751906086
aF9.10661751906086
aF9.10661751906086
aF9.10661751906086
aF9.10661751906086
aF9.10661751906086
aF9.10661751906086
aF9.10661751906086
aF9.10661751906086
aF9.10661751906086
aF9.10661751906086
aF9.10661751906086
aF9.10661751906086
aF9.10661751906086
aF9.10661751906086
aF9.10661751906086
aF9.10661751906086
aF9.10661751906086
aF9.10661751906086
aF9.10661751906086
aF9.10661751906086
aF9.10661751906086
aF9.10661751906086
aF9.10661751906086
aF9.10661751906086
aF9.10661751906086
aF9.10661751906086
aF9.10661751906086
aF9.10661751906086
aF9.10661751906086
aF9.10661751906086
aF9.10661751906086
aF9.10661751906086
aF9.10661751906086
aF9.10661751906086
aF9.10661751906086
aF9.10661751906086
aF9.10661751906086
aF9.10661751906086
aF9.10661751906086
aF9.10661751906086
aF9.10661751906086
aF9.10661751906086
aF9.10661751906086
aF9.10661751906086
aF9.10661751906086
aF9.10661751906086
aF9.10661751906086
aF9.10661751906086
aF9.10661751906086
aF9.10661751906086
aF9.10661751906086
aF9.10661751906086
aF9.10661751906086
aF9.10661751906086
aF9.10661751906086
aF9.10661751906086
aF9.10661751906086
aF9.10661751906086
aF9.10661751906086
aF9.10661751906086
aF9.10661751906086
aF9.10661751906086
aF9.10661751906086
aF9.10661751906086
aF9.10661751906086
aF9.10661751906086
aF9.10661751906086
aF9.10661751906086
aF9.10661751906086
aF9.10661751906086
aF9.10661751906086
aF9.10661751906086
aF9.10661751906086
aF9.10661751906086
aF9.10661751906086
aF9.10661751906086
aF9.10661751906086
aF9.10661751906086
aF9.10661751906086
aF9.10661751906086
aF9.10661751906086
aF9.10661751906086
aF9.10661751906086
aF9.10661751906086
aF9.10661751906086
aF9.10661751906086
aF9.10661751906086
aF9.10661751906086
aF9.10661751906086
aF9.10661751906086
aF9.10661751906086
aF9.10661751906086
aF9.10661751906086
aF9.10661751906086
aF9.10661751906086
aF9.10661751906086
aF9.10661751906086
aF9.10661751906086
aF9.10661751906086
aF9.10661751906086
aF9.10661751906086
aF9.10661751906086
aF9.10661751906086
aF9.10661751906086
aF9.10661751906086
aF9.10661751906086
aF9.10661751906086
aF9.10661751906086
aF9.10661751906086
aF9.10661751906086
aF9.10661751906086
aF9.10661751906086
aF9.10661751906086
aF9.10661751906086
aF9.10661751906086
aF9.10661751906086
aF9.10661751906086
aF9.10661751906086
aF9.10661751906086
aF9.10661751906086
aF9.10661751906086
aF9.10661751906086
aF9.10661751906086
aF9.10661751906086
aF9.10661751906086
aF9.10661751906086
aF9.10661751906086
aF9.10661751906086
aF9.10661751906086
aF9.10661751906086
aF9.10661751906086
aF9.10661751906086
aF9.10661751906086
aF9.10661751906086
aF9.10661751906086
aF9.10661751906086
aF9.10661751906086
aF9.10661751906086
aF9.10661751906086
aF9.10661751906086
aF9.10661751906086
aF9.10661751906086
aF9.10661751906086
aF9.10661751906086
aF9.10661751906086
aF9.10661751906086
aF9.10661751906086
aF9.10661751906086
aF9.10661751906086
aF9.10661751906086
aF9.10661751906086
aF9.10661751906086
aF9.10661751906086
aF9.10661751906086
aF9.10661751906086
aF9.10661751906086
aF9.10661751906086
aF9.10661751906086
aF9.10661751906086
aF9.10661751906086
aF9.10661751906086
aF9.10661751906086
aF9.10661751906086
aF9.10661751906086
aF9.10661751906086
aF9.10661751906086
aF9.10661751906086
aF9.10661751906086
aF9.10661751906086
aF9.10661751906086
aF9.10661751906086
aF9.10661751906086
aF9.10661751906086
aF9.10661751906086
aF9.10661751906086
aF9.10661751906086
aF9.10661751906086
aF9.10661751906086
aF9.10661751906086
aF9.10661751906086
aF9.10661751906086
aF9.10661751906086
aF9.10661751906086
aF9.10661751906086
aF9.10661751906086
aF9.10661751906086
aF9.10661751906086
aF9.10661751906086
aF9.10661751906086
aF9.10661751906086
aF9.10661751906086
aF9.10661751906086
aF9.10661751906086
aF9.10661751906086
aF9.10661751906086
aF9.10661751906086
aF9.10661751906086
aF9.10661751906086
aF9.10661751906086
aF9.10661751906086
aF9.10661751906086
aF9.10661751906086
aF9.10661751906086
aF9.10661751906086
aF9.10661751906086
aF9.10661751906086
aF9.10661751906086
aF9.10661751906086
aF9.10661751906086
aF9.10661751906086
aF9.10661751906086
aF9.10661751906086
aF9.10661751906086
aF9.10661751906086
aF9.10661751906086
aF9.10661751906086
aF9.10661751906086
aF9.10661751906086
aF9.10661751906086
aF9.10661751906086
aF9.10661751906086
aF9.10661751906086
aF9.10661751906086
aF9.10661751906086
aF9.10661751906086
aF9.10661751906086
aF9.10661751906086
aF9.10661751906086
aF9.10661751906086
aF9.10661751906086
aF9.10661751906086
aF9.10661751906086
aF9.10661751906086
aF9.10661751906086
aF9.10661751906086
aF9.10661751906086
aF9.10661751906086
aF9.10661751906086
aF9.10661751906086
aF9.10661751906086
aF9.10661751906086
aF9.10661751906086
aF9.10661751906086
aF9.10661751906086
aF9.10661751906086
aF9.10661751906086
aF9.10661751906086
aF9.10661751906086
aF9.10661751906086
aF9.10661751906086
aF9.10661751906086
aF9.10661751906086
aF9.10661751906086
aF9.10661751906086
aF9.10661751906086
aF9.10661751906086
aF9.10661751906086
aF9.10661751906086
aF9.10661751906086
aF9.10661751906086
aF9.10661751906086
aF9.10661751906086
aF9.10661751906086
aF9.10661751906086
aF9.10661751906086
aF9.10661751906086
aF9.10661751906086
aF9.10661751906086
aF9.10661751906086
aF9.10661751906086
aF9.10661751906086
aF9.10661751906086
aF9.10661751906086
aF9.10661751906086
aF9.10661751906086
aF9.10661751906086
aF9.10661751906086
aF9.10661751906086
aF9.10661751906086
aF9.10661751906086
aF9.10661751906086
aF9.10661751906086
aF9.10661751906086
aF9.10661751906086
aF9.10661751906086
aF9.10661751906086
aF9.10661751906086
aF9.10661751906086
aF9.10661751906086
aF9.10661751906086
aF9.10661751906086
aF9.10661751906086
aF9.10661751906086
aF9.10661751906086
aF9.10661751906086
aF9.10661751906086
aF9.10661751906086
aF9.10661751906086
aF9.10661751906086
aF9.10661751906086
aF9.10661751906086
aF9.10661751906086
aF9.10661751906086
aF9.10661751906086
aF9.10661751906086
aF9.10661751906086
aF9.10661751906086
aF9.10661751906086
aF9.10661751906086
aF9.10661751906086
aF9.10661751906086
aF9.10661751906086
aF9.10661751906086
aF9.10661751906086
aF9.10661751906086
aF9.10661751906086
aF9.10661751906086
aF9.10661751906086
aF9.10661751906086
aF9.10661751906086
aF9.10661751906086
aF9.10661751906086
aF9.10661751906086
aF9.10661751906086
aF9.10661751906086
aF9.10661751906086
aF9.10661751906086
aF9.10661751906086
aF9.10661751906086
aF9.10661751906086
aF9.10661751906086
aF9.10661751906086
aF9.10661751906086
aF9.10661751906086
aF9.10661751906086
aF9.10661751906086
aF9.10661751906086
aF9.10661751906086
aF9.10661751906086
aF9.10661751906086
aF9.10661751906086
aF9.10661751906086
aF9.10661751906086
aF9.10661751906086
aF9.10661751906086
aF9.10661751906086
aF9.10661751906086
aF9.10661751906086
aF9.10661751906086
aF9.10661751906086
aF9.10661751906086
aF9.10661751906086
aF9.10661751906086
aF9.10661751906086
aF9.10661751906086
aF9.10661751906086
aF9.10661751906086
aF9.10661751906086
aF9.10661751906086
aF9.10661751906086
aF9.10661751906086
aF9.10661751906086
aF9.10661751906086
aF9.10661751906086
aF9.10661751906086
aF9.10661751906086
aF9.10661751906086
aF9.10661751906086
aF9.10661751906086
aF9.10661751906086
aF9.10661751906086
aF9.10661751906086
aF9.10661751906086
aF9.10661751906086
aF9.10661751906086
aF9.10661751906086
aF9.10661751906086
aF9.10661751906086
aF9.10661751906086
aF9.10661751906086
aF9.10661751906086
aF9.10661751906086
aF9.10661751906086
aF9.10661751906086
aF9.10661751906086
aF9.10661751906086
aF9.10661751906086
aF9.10661751906086
aF9.10661751906086
aF9.10661751906086
aF9.10661751906086
aF9.10661751906086
aF9.10661751906086
aF9.10661751906086
aF9.10661751906086
aF9.10661751906086
aF9.10661751906086
aF9.10661751906086
aF9.10661751906086
aF9.10661751906086
aF9.10661751906086
aF9.10661751906086
aF9.10661751906086
aF9.10661751906086
aF9.10661751906086
aF9.10661751906086
aF9.10661751906086
aF9.10661751906086
aF9.10661751906086
aF9.10661751906086
aF9.10661751906086
aF9.10661751906086
aF9.10661751906086
aF9.10661751906086
aF9.10661751906086
aF9.10661751906086
aF9.10661751906086
aF9.10661751906086
aF9.10661751906086
aF9.10661751906086
aF9.10661751906086
aF9.10661751906086
aF9.10661751906086
aF9.10661751906086
aF9.10661751906086
aF9.10661751906086
aF9.10661751906086
aF9.10661751906086
aF9.10661751906086
aF9.10661751906086
aF9.10661751906086
aF9.10661751906086
aF9.10661751906086
aF9.10661751906086
aF9.10661751906086
aF9.10661751906086
aF9.10661751906086
aF9.10661751906086
aF9.10661751906086
aF9.10661751906086
aF9.10661751906086
aF9.10661751906086
aF9.10661751906086
aF9.10661751906086
aF9.10661751906086
aF9.10661751906086
aF9.10661751906086
aF9.10661751906086
aF9.10661751906086
aF9.10661751906086
aF9.10661751906086
aF9.10661751906086
aF9.10661751906086
aF9.10661751906086
aF9.10661751906086
aF9.10661751906086
aF9.10661751906086
aF9.10661751906086
aF9.10661751906086
aF9.10661751906086
aF9.10661751906086
aF9.10661751906086
aF9.10661751906086
aF9.10661751906086
aF9.10661751906086
aF9.10661751906086
aF9.10661751906086
aF9.10661751906086
aF9.10661751906086
aF9.10661751906086
aF9.10661751906086
aF9.10661751906086
aF9.10661751906086
aF9.10661751906086
aF9.10661751906086
aF9.10661751906086
aF9.10661751906086
aF9.10661751906086
aF9.10661751906086
aF9.10661751906086
aF9.10661751906086
aF9.10661751906086
aF9.10661751906086
aF9.10661751906086
aF9.10661751906086
aF9.10661751906086
aF9.10661751906086
aF9.10661751906086
aF9.10661751906086
aF9.10661751906086
aF9.10661751906086
aF9.10661751906086
aF9.10661751906086
aF9.10661751906086
aF9.10661751906086
aF9.10661751906086
aF9.10661751906086
aF9.10661751906086
aF9.10661751906086
aF9.10661751906086
aF9.10661751906086
aF9.10661751906086
aF9.10661751906086
aF9.10661751906086
aF9.10661751906086
aF9.10661751906086
aF9.10661751906086
aF9.10661751906086
aF9.10661751906086
aF9.10661751906086
aF9.10661751906086
aF9.10661751906086
aF9.10661751906086
aF9.10661751906086
aF9.10661751906086
aF9.10661751906086
aF9.10661751906086
aF9.10661751906086
aF9.10661751906086
aF9.10661751906086
aF9.10661751906086
aF9.10661751906086
aF9.10661751906086
aF9.10661751906086
aF9.10661751906086
aF9.10661751906086
aF9.10661751906086
aF9.10661751906086
aF9.10661751906086
aF9.10661751906086
aF9.10661751906086
aF9.10661751906086
aF9.10661751906086
aF9.10661751906086
aF9.10661751906086
aF9.10661751906086
aF9.10661751906086
aF9.10661751906086
aF9.10661751906086
aF9.10661751906086
aF9.10661751906086
aF9.10661751906086
aF9.10661751906086
aF9.10661751906086
aF9.10661751906086
aF9.10661751906086
aF9.10661751906086
aF9.10661751906086
aF9.10661751906086
aF9.10661751906086
aF9.10661751906086
aF9.10661751906086
aF9.10661751906086
aF9.10661751906086
aF9.10661751906086
aF9.10661751906086
aF9.10661751906086
aF9.10661751906086
aF9.10661751906086
aF9.10661751906086
aF9.10661751906086
aF9.10661751906086
aF9.10661751906086
aF9.10661751906086
aF9.10661751906086
aF9.10661751906086
aF9.10661751906086
aF9.10661751906086
aF9.10661751906086
aF9.10661751906086
aF9.10661751906086
aF9.10661751906086
aF9.10661751906086
aF9.10661751906086
aF9.10661751906086
aF9.10661751906086
aF9.10661751906086
aF9.10661751906086
aF9.10661751906086
aF9.10661751906086
aF9.10661751906086
aF9.10661751906086
aF9.10661751906086
aF9.10661751906086
aF9.10661751906086
aF9.10661751906086
aF9.10661751906086
aF9.10661751906086
aF9.10661751906086
aF9.10661751906086
aF9.10661751906086
aF9.10661751906086
aF9.10661751906086
aF9.10661751906086
aF9.10661751906086
aF9.10661751906086
aF9.10661751906086
aF9.10661751906086
aF9.10661751906086
aF9.10661751906086
aF9.10661751906086
aF9.10661751906086
aF9.10661751906086
aF9.10661751906086
aF9.10661751906086
aF9.10661751906086
aF9.10661751906086
aF9.10661751906086
aF9.10661751906086
aF9.10661751906086
aF9.10661751906086
aF9.10661751906086
aF9.10661751906086
aF9.10661751906086
aF9.10661751906086
aF9.10661751906086
aF9.10661751906086
aF9.10661751906086
aF9.10661751906086
aF9.10661751906086
aF9.10661751906086
aF9.10661751906086
aF9.10661751906086
aF9.10661751906086
aF9.10661751906086
aF9.10661751906086
aF9.10661751906086
aF9.10661751906086
aF9.10661751906086
aF9.10661751906086
aF9.10661751906086
aF9.10661751906086
aF9.10661751906086
aF9.10661751906086
aF9.10661751906086
aF9.10661751906086
aF9.10661751906086
aF9.10661751906086
aF9.10661751906086
aF9.10661751906086
aF9.10661751906086
aF9.10661751906086
aF9.10661751906086
aF9.10661751906086
aF9.10661751906086
aF9.10661751906086
aF9.10661751906086
aF9.10661751906086
aF9.10661751906086
aF9.10661751906086
aF9.10661751906086
aF9.10661751906086
aF9.10661751906086
aF9.10661751906086
aF9.10661751906086
aF9.10661751906086
aF9.10661751906086
aF9.10661751906086
aF9.10661751906086
aF9.10661751906086
aF9.10661751906086
aF9.10661751906086
aF9.10661751906086
aF9.10661751906086
aF9.10661751906086
aF9.10661751906086
aF9.10661751906086
aF9.10661751906086
aF9.10661751906086
aF9.10661751906086
aF9.10661751906086
aF9.10661751906086
aF9.10661751906086
aF9.10661751906086
aF9.10661751906086
aF9.10661751906086
aF9.10661751906086
aF9.10661751906086
aF9.10661751906086
aF9.10661751906086
aF9.10661751906086
aF9.10661751906086
aF9.10661751906086
aF9.10661751906086
aF9.10661751906086
aF9.10661751906086
aF9.10661751906086
aF9.10661751906086
aF9.10661751906086
aF9.10661751906086
aF9.10661751906086
aF9.10661751906086
aF9.10661751906086
aF9.10661751906086
aF9.10661751906086
aF9.10661751906086
aF9.10661751906086
aF9.10661751906086
aF9.10661751906086
aF9.10661751906086
aF9.10661751906086
aF9.10661751906086
aF9.10661751906086
aF9.10661751906086
aF9.10661751906086
aF9.10661751906086
aF9.10661751906086
aF9.10661751906086
aF9.10661751906086
aF9.10661751906086
aF9.10661751906086
aF9.10661751906086
aF9.10661751906086
aF9.10661751906086
aF9.10661751906086
aF9.10661751906086
aF9.10661751906086
aF9.10661751906086
aF9.10661751906086
aF9.10661751906086
aF9.10661751906086
aF9.10661751906086
aF9.10661751906086
aF9.10661751906086
aF9.10661751906086
aF9.10661751906086
aF9.10661751906086
aF9.10661751906086
aF9.10661751906086
aF9.10661751906086
aF9.10661751906086
aF9.10661751906086
aF9.10661751906086
aF9.10661751906086
aF9.10661751906086
aF9.10661751906086
aF9.10661751906086
aF9.10661751906086
aF9.10661751906086
aF9.10661751906086
aF9.10661751906086
aF9.10661751906086
aF9.10661751906086
aF9.10661751906086
aF9.10661751906086
aF9.10661751906086
aF9.10661751906086
aF9.10661751906086
aF9.10661751906086
aF9.10661751906086
aF9.10661751906086
aF9.10661751906086
aF9.10661751906086
aF9.10661751906086
aF9.10661751906086
aF9.10661751906086
aF9.10661751906086
aF9.10661751906086
aF9.10661751906086
aF9.10661751906086
aF9.10661751906086
aF9.10661751906086
aF9.10661751906086
aF9.10661751906086
aF9.10661751906086
aF9.10661751906086
aF9.10661751906086
aF9.10661751906086
aF9.10661751906086
aF9.10661751906086
aF9.10661751906086
aF9.10661751906086
aF9.10661751906086
aF9.10661751906086
aF9.10661751906086
aF9.10661751906086
aF9.10661751906086
aF9.10661751906086
aF9.10661751906086
aF9.10661751906086
aF9.10661751906086
aF9.10661751906086
aF9.10661751906086
aF9.10661751906086
aF9.10661751906086
aF9.10661751906086
aF9.10661751906086
aF9.10661751906086
aF9.10661751906086
aF9.10661751906086
aF9.10661751906086
aF9.10661751906086
aF9.10661751906086
aF9.10661751906086
aF9.10661751906086
aF9.10661751906086
aF9.10661751906086
aF9.10661751906086
aF9.10661751906086
aF9.10661751906086
aF9.10661751906086
aF9.10661751906086
aF9.10661751906086
aF9.10661751906086
aF9.10661751906086
aF9.10661751906086
aF9.10661751906086
aF9.10661751906086
aF9.10661751906086
aF9.10661751906086
aF9.10661751906086
aF9.10661751906086
aF9.10661751906086
aF9.10661751906086
aF9.10661751906086
aF9.10661751906086
aF9.10661751906086
aF9.10661751906086
aF9.10661751906086
aF9.10661751906086
aF9.10661751906086
aF9.10661751906086
aF9.10661751906086
aF9.10661751906086
aF9.10661751906086
aF9.10661751906086
aF9.10661751906086
aF9.10661751906086
aF9.10661751906086
aF9.10661751906086
aF9.10661751906086
aF9.10661751906086
aF9.10661751906086
aF9.10661751906086
aF9.10661751906086
aF9.10661751906086
aF9.10661751906086
aF9.10661751906086
aF9.10661751906086
aF9.10661751906086
aF9.10661751906086
aF9.10661751906086
aF9.10661751906086
aF9.10661751906086
aF9.10661751906086
aF9.10661751906086
aF9.10661751906086
aF9.10661751906086
aF9.10661751906086
aF9.10661751906086
aF9.10661751906086
aF9.10661751906086
aF9.10661751906086
aF9.10661751906086
aF9.10661751906086
aF9.10661751906086
aF9.10661751906086
aF9.10661751906086
aF9.10661751906086
aF9.10661751906086
aF9.10661751906086
aF9.10661751906086
aF9.10661751906086
aF9.10661751906086
aF9.10661751906086
aF9.10661751906086
aF9.10661751906086
aF9.10661751906086
aF9.10661751906086
aF9.10661751906086
aF9.10661751906086
aF9.10661751906086
aF9.10661751906086
aF9.10661751906086
aF9.10661751906086
aF9.10661751906086
aF9.10661751906086
aF9.10661751906086
aF9.10661751906086
aF9.10661751906086
aF9.10661751906086
aF9.10661751906086
aF9.10661751906086
aF9.10661751906086
aF9.10661751906086
aF9.10661751906086
aF9.10661751906086
aF9.10661751906086
aF9.10661751906086
aF9.10661751906086
aF9.10661751906086
aF9.10661751906086
aF9.10661751906086
aF9.10661751906086
aF9.10661751906086
aF9.10661751906086
aF9.10661751906086
aF9.10661751906086
aF9.10661751906086
aF9.10661751906086
aF9.10661751906086
aF9.10661751906086
aF9.10661751906086
aF9.10661751906086
aF9.10661751906086
aF9.10661751906086
aF9.10661751906086
aF9.10661751906086
aF9.10661751906086
aF9.10661751906086
aF9.10661751906086
aF9.10661751906086
aF9.10661751906086
aF9.10661751906086
aF9.10661751906086
aF9.10661751906086
aF9.10661751906086
aF9.10661751906086
aF9.10661751906086
aF9.10661751906086
aF9.10661751906086
aF9.10661751906086
aF9.10661751906086
aF9.10661751906086
aF9.10661751906086
aF9.10661751906086
aF9.10661751906086
aF9.10661751906086
aF9.10661751906086
aF9.10661751906086
aF9.10661751906086
aF9.10661751906086
aF9.10661751906086
aF9.10661751906086
aF9.10661751906086
aF9.10661751906086
aF9.10661751906086
aF9.10661751906086
aF9.10661751906086
aF9.10661751906086
aF9.10661751906086
aF9.10661751906086
aF9.10661751906086
aF9.10661751906086
aF9.10661751906086
aF9.10661751906086
aF9.10661751906086
aF9.10661751906086
aF9.10661751906086
aF9.10661751906086
aF9.10661751906086
aF9.10661751906086
aF9.10661751906086
aF9.10661751906086
aF9.10661751906086
aF9.10661751906086
aF9.10661751906086
aF9.10661751906086
aF9.10661751906086
aF9.10661751906086
aF9.10661751906086
aF9.10661751906086
aF9.10661751906086
aF9.10661751906086
aF9.10661751906086
aF9.10661751906086
aF9.10661751906086
aF9.10661751906086
aF9.10661751906086
aF9.10661751906086
aF9.10661751906086
aF9.10661751906086
aF9.10661751906086
aF9.10661751906086
aF9.10661751906086
aF9.10661751906086
aF9.10661751906086
aF9.10661751906086
aF9.10661751906086
aF9.10661751906086
aF9.10661751906086
aF9.10661751906086
aF9.10661751906086
aF9.10661751906086
aF9.10661751906086
aF9.10661751906086
aF9.10661751906086
aF9.10661751906086
aF9.10661751906086
aF9.10661751906086
aF9.10661751906086
aF9.10661751906086
aF9.10661751906086
aF9.10661751906086
aF9.10661751906086
aF9.10661751906086
aF9.10661751906086
aF9.10661751906086
aF9.10661751906086
aF9.10661751906086
aF9.10661751906086
aF9.10661751906086
aF9.10661751906086
aF9.10661751906086
aF9.10661751906086
aF9.10661751906086
aF9.10661751906086
aF9.10661751906086
aF9.10661751906086
aF9.10661751906086
aF9.10661751906086
aF9.10661751906086
aF9.10661751906086
aF9.10661751906086
aF9.10661751906086
aF9.10661751906086
aF9.10661751906086
aF9.10661751906086
aF9.10661751906086
aF9.10661751906086
aF9.10661751906086
aF9.10661751906086
aF9.10661751906086
aF9.10661751906086
aF9.10661751906086
aF9.10661751906086
aF9.10661751906086
aF9.10661751906086
aF9.10661751906086
aF9.10661751906086
aF9.10661751906086
aF9.10661751906086
aF9.10661751906086
aF9.10661751906086
aF9.10661751906086
aF9.10661751906086
aF9.10661751906086
aF9.10661751906086
aF9.10661751906086
aF9.10661751906086
aF9.10661751906086
aF9.10661751906086
aF9.10661751906086
aF9.10661751906086
aF9.10661751906086
aF9.10661751906086
aF9.10661751906086
aF9.10661751906086
aF9.10661751906086
aF9.10661751906086
aF9.10661751906086
aF9.10661751906086
aF9.10661751906086
aF9.10661751906086
aF9.10661751906086
aF9.10661751906086
aF9.10661751906086
aF9.10661751906086
aF9.10661751906086
aF9.10661751906086
aF9.10661751906086
aF9.10661751906086
aF9.10661751906086
aF9.10661751906086
aF9.10661751906086
aF9.10661751906086
aF9.10661751906086
aF9.10661751906086
aF9.10661751906086
aF9.10661751906086
aF9.10661751906086
aF9.10661751906086
aF9.10661751906086
aF9.10661751906086
aF9.10661751906086
aF9.10661751906086
aF9.10661751906086
aF9.10661751906086
aF9.10661751906086
aF9.10661751906086
aF9.10661751906086
aF9.10661751906086
aF9.10661751906086
aF9.10661751906086
aF9.10661751906086
aF9.10661751906086
aF9.10661751906086
aF9.10661751906086
aF9.10661751906086
aF9.10661751906086
aF9.10661751906086
aF9.10661751906086
aF9.10661751906086
aF9.10661751906086
aF9.10661751906086
aF9.10661751906086
aF9.10661751906086
aF9.10661751906086
aF9.10661751906086
aF9.10661751906086
aF9.10661751906086
aF9.10661751906086
aF9.10661751906086
aF9.10661751906086
aF9.10661751906086
aF9.10661751906086
aF9.10661751906086
aF9.10661751906086
aF9.10661751906086
aF9.10661751906086
aF9.10661751906086
aF9.10661751906086
aF9.10661751906086
aF9.10661751906086
aF9.10661751906086
aF9.10661751906086
aF9.10661751906086
aF9.10661751906086
aF9.10661751906086
aF9.10661751906086
aF9.10661751906086
aF9.10661751906086
aF9.10661751906086
aF9.10661751906086
aF9.10661751906086
aF9.10661751906086
aF9.10661751906086
aF9.10661751906086
aF9.10661751906086
aF9.10661751906086
aF9.10661751906086
aF9.10661751906086
aF9.10661751906086
aF9.10661751906086
aF9.10661751906086
aF9.10661751906086
aF9.10661751906086
aF9.10661751906086
aF9.10661751906086
aF9.10661751906086
aF9.10661751906086
aF9.10661751906086
aF9.10661751906086
aF9.10661751906086
aF9.10661751906086
aF9.10661751906086
aF9.10661751906086
aF9.10661751906086
aF9.10661751906086
aF9.10661751906086
aF9.10661751906086
aF9.10661751906086
aF9.10661751906086
aF9.10661751906086
aF9.10661751906086
aF9.10661751906086
aF9.10661751906086
aF9.10661751906086
aF9.10661751906086
aF9.10661751906086
aF9.10661751906086
aF9.10661751906086
aF9.10661751906086
aF9.10661751906086
aF9.10661751906086
aF9.10661751906086
aF9.10661751906086
aF9.10661751906086
aF9.10661751906086
aF9.10661751906086
aF9.10661751906086
aF9.10661751906086
aF9.10661751906086
aF9.10661751906086
aF9.10661751906086
aF9.10661751906086
aF9.10661751906086
aF9.10661751906086
aF9.10661751906086
aF9.10661751906086
aF9.10661751906086
aF9.10661751906086
aF9.10661751906086
aF9.10661751906086
aF9.10661751906086
aF9.10661751906086
aF9.10661751906086
aF9.10661751906086
aF9.10661751906086
aF9.10661751906086
aF9.10661751906086
aF9.10661751906086
aF9.10661751906086
aF9.10661751906086
aF9.10661751906086
aF9.10661751906086
aF9.10661751906086
aF9.10661751906086
aF9.10661751906086
aF9.10661751906086
aF9.10661751906086
aF9.10661751906086
aF9.10661751906086
aF9.10661751906086
aF9.10661751906086
aF9.10661751906086
a.